In archive libArduinoAccelerometerSensor.a:

AccelerometerNunchuk.o:     file format elf32-avr

Sections:
Idx Name          Size      VMA       LMA       File off  Algn
  0 .text         00000288  00000000  00000000  00000034  2**0
                  CONTENTS, ALLOC, LOAD, RELOC, READONLY, CODE
  1 .data         00000014  00000000  00000000  000002bc  2**0
                  CONTENTS, ALLOC, LOAD, RELOC, DATA
  2 .bss          00000000  00000000  00000000  000002d0  2**0
                  ALLOC
Disassembly of section .text:

00000000 <_ZN20AccelerometerNunchuk6decodeEh>:
   0:	87 e1       	ldi	r24, 0x17	; 23
   2:	86 27       	eor	r24, r22
   4:	89 5e       	subi	r24, 0xE9	; 233
   6:	08 95       	ret

00000008 <_ZN20AccelerometerNunchuk10convertToGEj>:
   8:	73 70       	andi	r23, 0x03	; 3
   a:	60 50       	subi	r22, 0x00	; 0
   c:	72 40       	sbci	r23, 0x02	; 2
   e:	88 27       	eor	r24, r24
  10:	77 fd       	sbrc	r23, 7
  12:	80 95       	com	r24
  14:	98 2f       	mov	r25, r24
  16:	0e 94 00 00 	call	0	; 0x0 <_ZN20AccelerometerNunchuk6decodeEh>
  1a:	20 e0       	ldi	r18, 0x00	; 0
  1c:	30 e0       	ldi	r19, 0x00	; 0
  1e:	40 e8       	ldi	r20, 0x80	; 128
  20:	5b e3       	ldi	r21, 0x3B	; 59
  22:	0e 94 00 00 	call	0	; 0x0 <_ZN20AccelerometerNunchuk6decodeEh>
  26:	08 95       	ret

00000028 <_ZN20AccelerometerNunchuk9readFrameEv>:
  28:	ff 92       	push	r15
  2a:	0f 93       	push	r16
  2c:	1f 93       	push	r17
  2e:	cf 93       	push	r28
  30:	df 93       	push	r29
  32:	8c 01       	movw	r16, r24
  34:	80 e0       	ldi	r24, 0x00	; 0
  36:	90 e0       	ldi	r25, 0x00	; 0
  38:	f8 01       	movw	r30, r16
  3a:	62 81       	ldd	r22, Z+2	; 0x02
  3c:	0e 94 00 00 	call	0	; 0x0 <_ZN20AccelerometerNunchuk6decodeEh>
  40:	80 e0       	ldi	r24, 0x00	; 0
  42:	90 e0       	ldi	r25, 0x00	; 0
  44:	60 e0       	ldi	r22, 0x00	; 0
  46:	0e 94 00 00 	call	0	; 0x0 <_ZN20AccelerometerNunchuk6decodeEh>
  4a:	80 e0       	ldi	r24, 0x00	; 0
  4c:	90 e0       	ldi	r25, 0x00	; 0
  4e:	0e 94 00 00 	call	0	; 0x0 <_ZN20AccelerometerNunchuk6decodeEh>
  52:	61 e0       	ldi	r22, 0x01	; 1
  54:	70 e0       	ldi	r23, 0x00	; 0
  56:	80 e0       	ldi	r24, 0x00	; 0
  58:	90 e0       	ldi	r25, 0x00	; 0
  5a:	0e 94 00 00 	call	0	; 0x0 <_ZN20AccelerometerNunchuk6decodeEh>
  5e:	80 e0       	ldi	r24, 0x00	; 0
  60:	90 e0       	ldi	r25, 0x00	; 0
  62:	f8 01       	movw	r30, r16
  64:	62 81       	ldd	r22, Z+2	; 0x02
  66:	46 e0       	ldi	r20, 0x06	; 6
  68:	0e 94 00 00 	call	0	; 0x0 <_ZN20AccelerometerNunchuk6decodeEh>
  6c:	c0 e0       	ldi	r28, 0x00	; 0
  6e:	d0 e0       	ldi	r29, 0x00	; 0
  70:	87 e1       	ldi	r24, 0x17	; 23
  72:	f8 2e       	mov	r15, r24
  74:	80 e0       	ldi	r24, 0x00	; 0
  76:	90 e0       	ldi	r25, 0x00	; 0
  78:	0e 94 00 00 	call	0	; 0x0 <_ZN20AccelerometerNunchuk6decodeEh>
  7c:	89 2b       	or	r24, r25
  7e:	01 f0       	breq	.+0      	; 0x80 <_ZN20AccelerometerNunchuk9readFrameEv+0x58>
  80:	80 e0       	ldi	r24, 0x00	; 0
  82:	90 e0       	ldi	r25, 0x00	; 0
  84:	0e 94 00 00 	call	0	; 0x0 <_ZN20AccelerometerNunchuk6decodeEh>
  88:	8f 25       	eor	r24, r15
  8a:	89 5e       	subi	r24, 0xE9	; 233
  8c:	f8 01       	movw	r30, r16
  8e:	85 83       	std	Z+5, r24	; 0x05
  90:	21 96       	adiw	r28, 0x01	; 1
  92:	0f 5f       	subi	r16, 0xFF	; 255
  94:	1f 4f       	sbci	r17, 0xFF	; 255
  96:	c6 30       	cpi	r28, 0x06	; 6
  98:	d1 05       	cpc	r29, r1
  9a:	01 f4       	brne	.+0      	; 0x9c <_ZN20AccelerometerNunchuk9readFrameEv+0x74>
  9c:	df 91       	pop	r29
  9e:	cf 91       	pop	r28
  a0:	1f 91       	pop	r17
  a2:	0f 91       	pop	r16
  a4:	ff 90       	pop	r15
  a6:	08 95       	ret

000000a8 <_ZN20AccelerometerNunchuk16readAccelerationENS_4AxisEb>:
  a8:	1f 93       	push	r17
  aa:	cf 93       	push	r28
  ac:	df 93       	push	r29
  ae:	ec 01       	movw	r28, r24
  b0:	16 2f       	mov	r17, r22
  b2:	44 23       	and	r20, r20
  b4:	01 f0       	breq	.+0      	; 0xb6 <_ZN20AccelerometerNunchuk16readAccelerationENS_4AxisEb+0xe>
  b6:	0e 94 00 00 	call	0	; 0x0 <_ZN20AccelerometerNunchuk6decodeEh>
  ba:	21 2f       	mov	r18, r17
  bc:	30 e0       	ldi	r19, 0x00	; 0
  be:	fe 01       	movw	r30, r28
  c0:	e2 0f       	add	r30, r18
  c2:	f3 1f       	adc	r31, r19
  c4:	47 81       	ldd	r20, Z+7	; 0x07
  c6:	50 e0       	ldi	r21, 0x00	; 0
  c8:	44 0f       	add	r20, r20
  ca:	55 1f       	adc	r21, r21
  cc:	44 0f       	add	r20, r20
  ce:	55 1f       	adc	r21, r21
  d0:	22 0f       	add	r18, r18
  d2:	33 1f       	adc	r19, r19
  d4:	8a 85       	ldd	r24, Y+10	; 0x0a
  d6:	90 e0       	ldi	r25, 0x00	; 0
  d8:	95 95       	asr	r25
  da:	87 95       	ror	r24
  dc:	95 95       	asr	r25
  de:	87 95       	ror	r24
  e0:	28 0f       	add	r18, r24
  e2:	39 1f       	adc	r19, r25
  e4:	23 70       	andi	r18, 0x03	; 3
  e6:	30 70       	andi	r19, 0x00	; 0
  e8:	24 2b       	or	r18, r20
  ea:	35 2b       	or	r19, r21
  ec:	c9 01       	movw	r24, r18
  ee:	df 91       	pop	r29
  f0:	cf 91       	pop	r28
  f2:	1f 91       	pop	r17
  f4:	08 95       	ret

000000f6 <_ZN20AccelerometerNunchuk6readZgEb>:
  f6:	46 2f       	mov	r20, r22
  f8:	62 e0       	ldi	r22, 0x02	; 2
  fa:	0e 94 00 00 	call	0	; 0x0 <_ZN20AccelerometerNunchuk6decodeEh>
  fe:	93 70       	andi	r25, 0x03	; 3
 100:	80 50       	subi	r24, 0x00	; 0
 102:	92 40       	sbci	r25, 0x02	; 2
 104:	aa 27       	eor	r26, r26
 106:	97 fd       	sbrc	r25, 7
 108:	a0 95       	com	r26
 10a:	ba 2f       	mov	r27, r26
 10c:	bc 01       	movw	r22, r24
 10e:	cd 01       	movw	r24, r26
 110:	0e 94 00 00 	call	0	; 0x0 <_ZN20AccelerometerNunchuk6decodeEh>
 114:	20 e0       	ldi	r18, 0x00	; 0
 116:	30 e0       	ldi	r19, 0x00	; 0
 118:	40 e8       	ldi	r20, 0x80	; 128
 11a:	5b e3       	ldi	r21, 0x3B	; 59
 11c:	0e 94 00 00 	call	0	; 0x0 <_ZN20AccelerometerNunchuk6decodeEh>
 120:	08 95       	ret

00000122 <_ZN20AccelerometerNunchuk6readZgEv>:
 122:	60 e0       	ldi	r22, 0x00	; 0
 124:	0e 94 00 00 	call	0	; 0x0 <_ZN20AccelerometerNunchuk6decodeEh>
 128:	08 95       	ret

0000012a <_ZN20AccelerometerNunchuk6readYgEb>:
 12a:	46 2f       	mov	r20, r22
 12c:	61 e0       	ldi	r22, 0x01	; 1
 12e:	0e 94 00 00 	call	0	; 0x0 <_ZN20AccelerometerNunchuk6decodeEh>
 132:	93 70       	andi	r25, 0x03	; 3
 134:	80 50       	subi	r24, 0x00	; 0
 136:	92 40       	sbci	r25, 0x02	; 2
 138:	aa 27       	eor	r26, r26
 13a:	97 fd       	sbrc	r25, 7
 13c:	a0 95       	com	r26
 13e:	ba 2f       	mov	r27, r26
 140:	bc 01       	movw	r22, r24
 142:	cd 01       	movw	r24, r26
 144:	0e 94 00 00 	call	0	; 0x0 <_ZN20AccelerometerNunchuk6decodeEh>
 148:	20 e0       	ldi	r18, 0x00	; 0
 14a:	30 e0       	ldi	r19, 0x00	; 0
 14c:	40 e8       	ldi	r20, 0x80	; 128
 14e:	5b e3       	ldi	r21, 0x3B	; 59
 150:	0e 94 00 00 	call	0	; 0x0 <_ZN20AccelerometerNunchuk6decodeEh>
 154:	08 95       	ret

00000156 <_ZN20AccelerometerNunchuk6readYgEv>:
 156:	60 e0       	ldi	r22, 0x00	; 0
 158:	0e 94 00 00 	call	0	; 0x0 <_ZN20AccelerometerNunchuk6decodeEh>
 15c:	08 95       	ret

0000015e <_ZN20AccelerometerNunchuk6readXgEb>:
 15e:	46 2f       	mov	r20, r22
 160:	60 e0       	ldi	r22, 0x00	; 0
 162:	0e 94 00 00 	call	0	; 0x0 <_ZN20AccelerometerNunchuk6decodeEh>
 166:	93 70       	andi	r25, 0x03	; 3
 168:	80 50       	subi	r24, 0x00	; 0
 16a:	92 40       	sbci	r25, 0x02	; 2
 16c:	aa 27       	eor	r26, r26
 16e:	97 fd       	sbrc	r25, 7
 170:	a0 95       	com	r26
 172:	ba 2f       	mov	r27, r26
 174:	bc 01       	movw	r22, r24
 176:	cd 01       	movw	r24, r26
 178:	0e 94 00 00 	call	0	; 0x0 <_ZN20AccelerometerNunchuk6decodeEh>
 17c:	20 e0       	ldi	r18, 0x00	; 0
 17e:	30 e0       	ldi	r19, 0x00	; 0
 180:	40 e8       	ldi	r20, 0x80	; 128
 182:	5b e3       	ldi	r21, 0x3B	; 59
 184:	0e 94 00 00 	call	0	; 0x0 <_ZN20AccelerometerNunchuk6decodeEh>
 188:	08 95       	ret

0000018a <_ZN20AccelerometerNunchuk6readXgEv>:
 18a:	60 e0       	ldi	r22, 0x00	; 0
 18c:	0e 94 00 00 	call	0	; 0x0 <_ZN20AccelerometerNunchuk6decodeEh>
 190:	08 95       	ret

00000192 <_ZN20AccelerometerNunchuk13readYJoystickEb>:
 192:	cf 93       	push	r28
 194:	df 93       	push	r29
 196:	ec 01       	movw	r28, r24
 198:	66 23       	and	r22, r22
 19a:	01 f0       	breq	.+0      	; 0x19c <_ZN20AccelerometerNunchuk13readYJoystickEb+0xa>
 19c:	0e 94 00 00 	call	0	; 0x0 <_ZN20AccelerometerNunchuk6decodeEh>
 1a0:	8e 81       	ldd	r24, Y+6	; 0x06
 1a2:	df 91       	pop	r29
 1a4:	cf 91       	pop	r28
 1a6:	08 95       	ret

000001a8 <_ZN20AccelerometerNunchuk13readXJoystickEb>:
 1a8:	cf 93       	push	r28
 1aa:	df 93       	push	r29
 1ac:	ec 01       	movw	r28, r24
 1ae:	66 23       	and	r22, r22
 1b0:	01 f0       	breq	.+0      	; 0x1b2 <_ZN20AccelerometerNunchuk13readXJoystickEb+0xa>
 1b2:	0e 94 00 00 	call	0	; 0x0 <_ZN20AccelerometerNunchuk6decodeEh>
 1b6:	8d 81       	ldd	r24, Y+5	; 0x05
 1b8:	df 91       	pop	r29
 1ba:	cf 91       	pop	r28
 1bc:	08 95       	ret

000001be <_ZN20AccelerometerNunchuk11readCButtonEb>:
 1be:	cf 93       	push	r28
 1c0:	df 93       	push	r29
 1c2:	ec 01       	movw	r28, r24
 1c4:	66 23       	and	r22, r22
 1c6:	01 f0       	breq	.+0      	; 0x1c8 <_ZN20AccelerometerNunchuk11readCButtonEb+0xa>
 1c8:	0e 94 00 00 	call	0	; 0x0 <_ZN20AccelerometerNunchuk6decodeEh>
 1cc:	8a 85       	ldd	r24, Y+10	; 0x0a
 1ce:	86 95       	lsr	r24
 1d0:	80 95       	com	r24
 1d2:	81 70       	andi	r24, 0x01	; 1
 1d4:	df 91       	pop	r29
 1d6:	cf 91       	pop	r28
 1d8:	08 95       	ret

000001da <_ZN20AccelerometerNunchuk11readZButtonEb>:
 1da:	cf 93       	push	r28
 1dc:	df 93       	push	r29
 1de:	ec 01       	movw	r28, r24
 1e0:	66 23       	and	r22, r22
 1e2:	01 f0       	breq	.+0      	; 0x1e4 <_ZN20AccelerometerNunchuk11readZButtonEb+0xa>
 1e4:	0e 94 00 00 	call	0	; 0x0 <_ZN20AccelerometerNunchuk6decodeEh>
 1e8:	8a 85       	ldd	r24, Y+10	; 0x0a
 1ea:	80 95       	com	r24
 1ec:	81 70       	andi	r24, 0x01	; 1
 1ee:	df 91       	pop	r29
 1f0:	cf 91       	pop	r28
 1f2:	08 95       	ret

000001f4 <_ZN20AccelerometerNunchuk5beginEv>:
 1f4:	ef 92       	push	r14
 1f6:	ff 92       	push	r15
 1f8:	0f 93       	push	r16
 1fa:	1f 93       	push	r17
 1fc:	7c 01       	movw	r14, r24
 1fe:	00 e0       	ldi	r16, 0x00	; 0
 200:	10 e0       	ldi	r17, 0x00	; 0
 202:	c8 01       	movw	r24, r16
 204:	f7 01       	movw	r30, r14
 206:	62 81       	ldd	r22, Z+2	; 0x02
 208:	0e 94 00 00 	call	0	; 0x0 <_ZN20AccelerometerNunchuk6decodeEh>
 20c:	c8 01       	movw	r24, r16
 20e:	f7 01       	movw	r30, r14
 210:	63 81       	ldd	r22, Z+3	; 0x03
 212:	0e 94 00 00 	call	0	; 0x0 <_ZN20AccelerometerNunchuk6decodeEh>
 216:	c8 01       	movw	r24, r16
 218:	f7 01       	movw	r30, r14
 21a:	64 81       	ldd	r22, Z+4	; 0x04
 21c:	0e 94 00 00 	call	0	; 0x0 <_ZN20AccelerometerNunchuk6decodeEh>
 220:	c8 01       	movw	r24, r16
 222:	0e 94 00 00 	call	0	; 0x0 <_ZN20AccelerometerNunchuk6decodeEh>
 226:	1f 91       	pop	r17
 228:	0f 91       	pop	r16
 22a:	ff 90       	pop	r15
 22c:	ef 90       	pop	r14
 22e:	08 95       	ret

00000230 <_ZN20AccelerometerNunchukC1Ev>:
 230:	0f 93       	push	r16
 232:	1f 93       	push	r17
 234:	8c 01       	movw	r16, r24
 236:	80 e0       	ldi	r24, 0x00	; 0
 238:	90 e0       	ldi	r25, 0x00	; 0
 23a:	f8 01       	movw	r30, r16
 23c:	91 83       	std	Z+1, r25	; 0x01
 23e:	80 83       	st	Z, r24
 240:	80 e0       	ldi	r24, 0x00	; 0
 242:	90 e0       	ldi	r25, 0x00	; 0
 244:	0e 94 00 00 	call	0	; 0x0 <_ZN20AccelerometerNunchuk6decodeEh>
 248:	82 e5       	ldi	r24, 0x52	; 82
 24a:	f8 01       	movw	r30, r16
 24c:	82 83       	std	Z+2, r24	; 0x02
 24e:	80 ef       	ldi	r24, 0xF0	; 240
 250:	83 83       	std	Z+3, r24	; 0x03
 252:	8a ea       	ldi	r24, 0xAA	; 170
 254:	84 83       	std	Z+4, r24	; 0x04
 256:	1f 91       	pop	r17
 258:	0f 91       	pop	r16
 25a:	08 95       	ret

0000025c <_ZN20AccelerometerNunchukC2Ev>:
 25c:	0f 93       	push	r16
 25e:	1f 93       	push	r17
 260:	8c 01       	movw	r16, r24
 262:	80 e0       	ldi	r24, 0x00	; 0
 264:	90 e0       	ldi	r25, 0x00	; 0
 266:	f8 01       	movw	r30, r16
 268:	91 83       	std	Z+1, r25	; 0x01
 26a:	80 83       	st	Z, r24
 26c:	80 e0       	ldi	r24, 0x00	; 0
 26e:	90 e0       	ldi	r25, 0x00	; 0
 270:	0e 94 00 00 	call	0	; 0x0 <_ZN20AccelerometerNunchuk6decodeEh>
 274:	82 e5       	ldi	r24, 0x52	; 82
 276:	f8 01       	movw	r30, r16
 278:	82 83       	std	Z+2, r24	; 0x02
 27a:	80 ef       	ldi	r24, 0xF0	; 240
 27c:	83 83       	std	Z+3, r24	; 0x03
 27e:	8a ea       	ldi	r24, 0xAA	; 170
 280:	84 83       	std	Z+4, r24	; 0x04
 282:	1f 91       	pop	r17
 284:	0f 91       	pop	r16
 286:	08 95       	ret

AccelerometerMMA8451.o:     file format elf32-avr

Sections:
Idx Name          Size      VMA       LMA       File off  Algn
  0 .text         000005e6  00000000  00000000  00000034  2**0
                  CONTENTS, ALLOC, LOAD, RELOC, READONLY, CODE
  1 .data         0000002c  00000000  00000000  0000061a  2**0
                  CONTENTS, ALLOC, LOAD, RELOC, DATA
  2 .bss          00000000  00000000  00000000  00000646  2**0
                  ALLOC
Disassembly of section .text:

00000000 <_ZN20AccelerometerMMA845110convertToGEPhb>:
   0:	0f 93       	push	r16
   2:	1f 93       	push	r17
   4:	df 93       	push	r29
   6:	cf 93       	push	r28
   8:	cd b7       	in	r28, 0x3d	; 61
   a:	de b7       	in	r29, 0x3e	; 62
   c:	2c 97       	sbiw	r28, 0x0c	; 12
   e:	0f b6       	in	r0, 0x3f	; 63
  10:	f8 94       	cli
  12:	de bf       	out	0x3e, r29	; 62
  14:	0f be       	out	0x3f, r0	; 63
  16:	cd bf       	out	0x3d, r28	; 61
  18:	8c 01       	movw	r16, r24
  1a:	ce 01       	movw	r24, r28
  1c:	01 96       	adiw	r24, 0x01	; 1
  1e:	44 23       	and	r20, r20
  20:	01 f0       	breq	.+0      	; 0x22 <_ZN20AccelerometerMMA845110convertToGEPhb+0x22>
  22:	dc 01       	movw	r26, r24
  24:	e0 e0       	ldi	r30, 0x00	; 0
  26:	f0 e0       	ldi	r31, 0x00	; 0
  28:	8c e0       	ldi	r24, 0x0C	; 12
  2a:	01 90       	ld	r0, Z+
  2c:	0d 92       	st	X+, r0
  2e:	81 50       	subi	r24, 0x01	; 1
  30:	01 f4       	brne	.+0      	; 0x32 <_ZN20AccelerometerMMA845110convertToGEPhb+0x32>
  32:	db 01       	movw	r26, r22
  34:	6c 91       	ld	r22, X
  36:	70 e0       	ldi	r23, 0x00	; 0
  38:	00 c0       	rjmp	.+0      	; 0x3a <_ZN20AccelerometerMMA845110convertToGEPhb+0x3a>
  3a:	dc 01       	movw	r26, r24
  3c:	e0 e0       	ldi	r30, 0x00	; 0
  3e:	f0 e0       	ldi	r31, 0x00	; 0
  40:	8c e0       	ldi	r24, 0x0C	; 12
  42:	01 90       	ld	r0, Z+
  44:	0d 92       	st	X+, r0
  46:	81 50       	subi	r24, 0x01	; 1
  48:	01 f4       	brne	.+0      	; 0x4a <_ZN20AccelerometerMMA845110convertToGEPhb+0x4a>
  4a:	fb 01       	movw	r30, r22
  4c:	30 81       	ld	r19, Z
  4e:	20 e0       	ldi	r18, 0x00	; 0
  50:	61 81       	ldd	r22, Z+1	; 0x01
  52:	70 e0       	ldi	r23, 0x00	; 0
  54:	62 2b       	or	r22, r18
  56:	73 2b       	or	r23, r19
  58:	88 27       	eor	r24, r24
  5a:	77 fd       	sbrc	r23, 7
  5c:	80 95       	com	r24
  5e:	98 2f       	mov	r25, r24
  60:	0e 94 00 00 	call	0	; 0x0 <_ZN20AccelerometerMMA845110convertToGEPhb>
  64:	d8 01       	movw	r26, r16
  66:	17 96       	adiw	r26, 0x07	; 7
  68:	ec 91       	ld	r30, X
  6a:	e3 70       	andi	r30, 0x03	; 3
  6c:	f0 e0       	ldi	r31, 0x00	; 0
  6e:	ee 0f       	add	r30, r30
  70:	ff 1f       	adc	r31, r31
  72:	ee 0f       	add	r30, r30
  74:	ff 1f       	adc	r31, r31
  76:	ec 0f       	add	r30, r28
  78:	fd 1f       	adc	r31, r29
  7a:	21 81       	ldd	r18, Z+1	; 0x01
  7c:	32 81       	ldd	r19, Z+2	; 0x02
  7e:	43 81       	ldd	r20, Z+3	; 0x03
  80:	54 81       	ldd	r21, Z+4	; 0x04
  82:	0e 94 00 00 	call	0	; 0x0 <_ZN20AccelerometerMMA845110convertToGEPhb>
  86:	e6 2f       	mov	r30, r22
  88:	2e 2f       	mov	r18, r30
  8a:	37 2f       	mov	r19, r23
  8c:	48 2f       	mov	r20, r24
  8e:	59 2f       	mov	r21, r25
  90:	b9 01       	movw	r22, r18
  92:	ca 01       	movw	r24, r20
  94:	2c 96       	adiw	r28, 0x0c	; 12
  96:	0f b6       	in	r0, 0x3f	; 63
  98:	f8 94       	cli
  9a:	de bf       	out	0x3e, r29	; 62
  9c:	0f be       	out	0x3f, r0	; 63
  9e:	cd bf       	out	0x3d, r28	; 61
  a0:	cf 91       	pop	r28
  a2:	df 91       	pop	r29
  a4:	1f 91       	pop	r17
  a6:	0f 91       	pop	r16
  a8:	08 95       	ret

000000aa <_ZN20AccelerometerMMA845117readRegisterBlockEhPhh>:
  aa:	cf 92       	push	r12
  ac:	df 92       	push	r13
  ae:	ef 92       	push	r14
  b0:	ff 92       	push	r15
  b2:	0f 93       	push	r16
  b4:	1f 93       	push	r17
  b6:	cf 93       	push	r28
  b8:	df 93       	push	r29
  ba:	8c 01       	movw	r16, r24
  bc:	f6 2e       	mov	r15, r22
  be:	6a 01       	movw	r12, r20
  c0:	e2 2e       	mov	r14, r18
  c2:	80 e0       	ldi	r24, 0x00	; 0
  c4:	90 e0       	ldi	r25, 0x00	; 0
  c6:	f8 01       	movw	r30, r16
  c8:	66 81       	ldd	r22, Z+6	; 0x06
  ca:	0e 94 00 00 	call	0	; 0x0 <_ZN20AccelerometerMMA845110convertToGEPhb>
  ce:	80 e0       	ldi	r24, 0x00	; 0
  d0:	90 e0       	ldi	r25, 0x00	; 0
  d2:	6f 2d       	mov	r22, r15
  d4:	0e 94 00 00 	call	0	; 0x0 <_ZN20AccelerometerMMA845110convertToGEPhb>
  d8:	80 e0       	ldi	r24, 0x00	; 0
  da:	90 e0       	ldi	r25, 0x00	; 0
  dc:	60 e0       	ldi	r22, 0x00	; 0
  de:	0e 94 00 00 	call	0	; 0x0 <_ZN20AccelerometerMMA845110convertToGEPhb>
  e2:	80 e0       	ldi	r24, 0x00	; 0
  e4:	90 e0       	ldi	r25, 0x00	; 0
  e6:	f8 01       	movw	r30, r16
  e8:	66 81       	ldd	r22, Z+6	; 0x06
  ea:	4e 2d       	mov	r20, r14
  ec:	0e 94 00 00 	call	0	; 0x0 <_ZN20AccelerometerMMA845110convertToGEPhb>
  f0:	c0 e0       	ldi	r28, 0x00	; 0
  f2:	d0 e0       	ldi	r29, 0x00	; 0
  f4:	ff 24       	eor	r15, r15
  f6:	00 c0       	rjmp	.+0      	; 0xf8 <_ZN20AccelerometerMMA845117readRegisterBlockEhPhh+0x4e>
  f8:	80 e0       	ldi	r24, 0x00	; 0
  fa:	90 e0       	ldi	r25, 0x00	; 0
  fc:	0e 94 00 00 	call	0	; 0x0 <_ZN20AccelerometerMMA845110convertToGEPhb>
 100:	89 2b       	or	r24, r25
 102:	01 f0       	breq	.+0      	; 0x104 <_ZN20AccelerometerMMA845117readRegisterBlockEhPhh+0x5a>
 104:	80 e0       	ldi	r24, 0x00	; 0
 106:	90 e0       	ldi	r25, 0x00	; 0
 108:	0e 94 00 00 	call	0	; 0x0 <_ZN20AccelerometerMMA845110convertToGEPhb>
 10c:	f6 01       	movw	r30, r12
 10e:	ec 0f       	add	r30, r28
 110:	fd 1f       	adc	r31, r29
 112:	80 83       	st	Z, r24
 114:	21 96       	adiw	r28, 0x01	; 1
 116:	ce 15       	cp	r28, r14
 118:	df 05       	cpc	r29, r15
 11a:	04 f0       	brlt	.+0      	; 0x11c <_ZN20AccelerometerMMA845117readRegisterBlockEhPhh+0x72>
 11c:	df 91       	pop	r29
 11e:	cf 91       	pop	r28
 120:	1f 91       	pop	r17
 122:	0f 91       	pop	r16
 124:	ff 90       	pop	r15
 126:	ef 90       	pop	r14
 128:	df 90       	pop	r13
 12a:	cf 90       	pop	r12
 12c:	08 95       	ret

0000012e <_ZN20AccelerometerMMA845112readRegisterENS_8LocationE>:
 12e:	df 93       	push	r29
 130:	cf 93       	push	r28
 132:	0f 92       	push	r0
 134:	cd b7       	in	r28, 0x3d	; 61
 136:	de b7       	in	r29, 0x3e	; 62
 138:	ae 01       	movw	r20, r28
 13a:	4f 5f       	subi	r20, 0xFF	; 255
 13c:	5f 4f       	sbci	r21, 0xFF	; 255
 13e:	21 e0       	ldi	r18, 0x01	; 1
 140:	0e 94 00 00 	call	0	; 0x0 <_ZN20AccelerometerMMA845110convertToGEPhb>
 144:	89 81       	ldd	r24, Y+1	; 0x01
 146:	0f 90       	pop	r0
 148:	cf 91       	pop	r28
 14a:	df 91       	pop	r29
 14c:	08 95       	ret

0000014e <_ZN20AccelerometerMMA84519getSysmodEv>:
 14e:	6b e0       	ldi	r22, 0x0B	; 11
 150:	0e 94 00 00 	call	0	; 0x0 <_ZN20AccelerometerMMA845110convertToGEPhb>
 154:	83 70       	andi	r24, 0x03	; 3
 156:	08 95       	ret

00000158 <_ZN20AccelerometerMMA845110getFifoFgtEv>:
 158:	6b e0       	ldi	r22, 0x0B	; 11
 15a:	0e 94 00 00 	call	0	; 0x0 <_ZN20AccelerometerMMA845110convertToGEPhb>
 15e:	86 95       	lsr	r24
 160:	86 95       	lsr	r24
 162:	8f 71       	andi	r24, 0x1F	; 31
 164:	08 95       	ret

00000166 <_ZN20AccelerometerMMA845116getFifoGateErrorEv>:
 166:	6b e0       	ldi	r22, 0x0B	; 11
 168:	0e 94 00 00 	call	0	; 0x0 <_ZN20AccelerometerMMA845110convertToGEPhb>
 16c:	88 1f       	adc	r24, r24
 16e:	88 27       	eor	r24, r24
 170:	88 1f       	adc	r24, r24
 172:	01 f0       	breq	.+0      	; 0x174 <_ZN20AccelerometerMMA845116getFifoGateErrorEv+0xe>
 174:	81 e0       	ldi	r24, 0x01	; 1
 176:	08 95       	ret

00000178 <_ZN20AccelerometerMMA845111isDataReadyEv>:
 178:	60 e0       	ldi	r22, 0x00	; 0
 17a:	0e 94 00 00 	call	0	; 0x0 <_ZN20AccelerometerMMA845110convertToGEPhb>
 17e:	86 95       	lsr	r24
 180:	86 95       	lsr	r24
 182:	86 95       	lsr	r24
 184:	81 70       	andi	r24, 0x01	; 1
 186:	01 f0       	breq	.+0      	; 0x188 <_ZN20AccelerometerMMA845111isDataReadyEv+0x10>
 188:	81 e0       	ldi	r24, 0x01	; 1
 18a:	08 95       	ret

0000018c <_ZN20AccelerometerMMA84517readXYZEPh>:
 18c:	fc 01       	movw	r30, r24
 18e:	ab 01       	movw	r20, r22
 190:	80 85       	ldd	r24, Z+8	; 0x08
 192:	81 fd       	sbrc	r24, 1
 194:	00 c0       	rjmp	.+0      	; 0x196 <_ZN20AccelerometerMMA84517readXYZEPh+0xa>
 196:	26 e0       	ldi	r18, 0x06	; 6
 198:	00 c0       	rjmp	.+0      	; 0x19a <_ZN20AccelerometerMMA84517readXYZEPh+0xe>
 19a:	23 e0       	ldi	r18, 0x03	; 3
 19c:	cf 01       	movw	r24, r30
 19e:	61 e0       	ldi	r22, 0x01	; 1
 1a0:	0e 94 00 00 	call	0	; 0x0 <_ZN20AccelerometerMMA845110convertToGEPhb>
 1a4:	08 95       	ret

000001a6 <_ZN20AccelerometerMMA845118writeRegisterBlockEhPhh>:
 1a6:	ef 92       	push	r14
 1a8:	ff 92       	push	r15
 1aa:	0f 93       	push	r16
 1ac:	1f 93       	push	r17
 1ae:	cf 93       	push	r28
 1b0:	df 93       	push	r29
 1b2:	fc 01       	movw	r30, r24
 1b4:	16 2f       	mov	r17, r22
 1b6:	7a 01       	movw	r14, r20
 1b8:	02 2f       	mov	r16, r18
 1ba:	80 e0       	ldi	r24, 0x00	; 0
 1bc:	90 e0       	ldi	r25, 0x00	; 0
 1be:	66 81       	ldd	r22, Z+6	; 0x06
 1c0:	0e 94 00 00 	call	0	; 0x0 <_ZN20AccelerometerMMA845110convertToGEPhb>
 1c4:	80 e0       	ldi	r24, 0x00	; 0
 1c6:	90 e0       	ldi	r25, 0x00	; 0
 1c8:	61 2f       	mov	r22, r17
 1ca:	0e 94 00 00 	call	0	; 0x0 <_ZN20AccelerometerMMA845110convertToGEPhb>
 1ce:	c0 e0       	ldi	r28, 0x00	; 0
 1d0:	d0 e0       	ldi	r29, 0x00	; 0
 1d2:	10 e0       	ldi	r17, 0x00	; 0
 1d4:	00 c0       	rjmp	.+0      	; 0x1d6 <_ZN20AccelerometerMMA845118writeRegisterBlockEhPhh+0x30>
 1d6:	f7 01       	movw	r30, r14
 1d8:	ec 0f       	add	r30, r28
 1da:	fd 1f       	adc	r31, r29
 1dc:	80 e0       	ldi	r24, 0x00	; 0
 1de:	90 e0       	ldi	r25, 0x00	; 0
 1e0:	60 81       	ld	r22, Z
 1e2:	0e 94 00 00 	call	0	; 0x0 <_ZN20AccelerometerMMA845110convertToGEPhb>
 1e6:	21 96       	adiw	r28, 0x01	; 1
 1e8:	c0 17       	cp	r28, r16
 1ea:	d1 07       	cpc	r29, r17
 1ec:	04 f0       	brlt	.+0      	; 0x1ee <_ZN20AccelerometerMMA845118writeRegisterBlockEhPhh+0x48>
 1ee:	80 e0       	ldi	r24, 0x00	; 0
 1f0:	90 e0       	ldi	r25, 0x00	; 0
 1f2:	0e 94 00 00 	call	0	; 0x0 <_ZN20AccelerometerMMA845110convertToGEPhb>
 1f6:	df 91       	pop	r29
 1f8:	cf 91       	pop	r28
 1fa:	1f 91       	pop	r17
 1fc:	0f 91       	pop	r16
 1fe:	ff 90       	pop	r15
 200:	ef 90       	pop	r14
 202:	08 95       	ret

00000204 <_ZN20AccelerometerMMA845113writeRegisterENS_8LocationEh>:
 204:	df 93       	push	r29
 206:	cf 93       	push	r28
 208:	0f 92       	push	r0
 20a:	cd b7       	in	r28, 0x3d	; 61
 20c:	de b7       	in	r29, 0x3e	; 62
 20e:	49 83       	std	Y+1, r20	; 0x01
 210:	ae 01       	movw	r20, r28
 212:	4f 5f       	subi	r20, 0xFF	; 255
 214:	5f 4f       	sbci	r21, 0xFF	; 255
 216:	21 e0       	ldi	r18, 0x01	; 1
 218:	0e 94 00 00 	call	0	; 0x0 <_ZN20AccelerometerMMA845110convertToGEPhb>
 21c:	0f 90       	pop	r0
 21e:	cf 91       	pop	r28
 220:	df 91       	pop	r29
 222:	08 95       	ret

00000224 <_ZN20AccelerometerMMA845121configureRegisterBitsENS_8LocationENS_4MaskEh>:
 224:	df 92       	push	r13
 226:	ef 92       	push	r14
 228:	ff 92       	push	r15
 22a:	0f 93       	push	r16
 22c:	1f 93       	push	r17
 22e:	7c 01       	movw	r14, r24
 230:	d6 2e       	mov	r13, r22
 232:	04 2f       	mov	r16, r20
 234:	12 2f       	mov	r17, r18
 236:	0e 94 00 00 	call	0	; 0x0 <_ZN20AccelerometerMMA845110convertToGEPhb>
 23a:	40 2f       	mov	r20, r16
 23c:	40 95       	com	r20
 23e:	48 23       	and	r20, r24
 240:	10 23       	and	r17, r16
 242:	41 2b       	or	r20, r17
 244:	c7 01       	movw	r24, r14
 246:	6d 2d       	mov	r22, r13
 248:	0e 94 00 00 	call	0	; 0x0 <_ZN20AccelerometerMMA845110convertToGEPhb>
 24c:	1f 91       	pop	r17
 24e:	0f 91       	pop	r16
 250:	ff 90       	pop	r15
 252:	ef 90       	pop	r14
 254:	df 90       	pop	r13
 256:	08 95       	ret

00000258 <_ZN20AccelerometerMMA845120setPushPullOpenDrainENS_17PushPullOpenDrainE>:
 258:	26 2f       	mov	r18, r22
 25a:	22 0f       	add	r18, r18
 25c:	6c e2       	ldi	r22, 0x2C	; 44
 25e:	41 e0       	ldi	r20, 0x01	; 1
 260:	0e 94 00 00 	call	0	; 0x0 <_ZN20AccelerometerMMA845110convertToGEPhb>
 264:	08 95       	ret

00000266 <_ZN20AccelerometerMMA845116setFifoWatermarkEh>:
 266:	26 2f       	mov	r18, r22
 268:	69 e0       	ldi	r22, 0x09	; 9
 26a:	4f e3       	ldi	r20, 0x3F	; 63
 26c:	0e 94 00 00 	call	0	; 0x0 <_ZN20AccelerometerMMA845110convertToGEPhb>
 270:	08 95       	ret

00000272 <_ZN20AccelerometerMMA845125setFifoBufferOverflowModeENS_22FifoBufferOverflowModeE>:
 272:	ef 92       	push	r14
 274:	ff 92       	push	r15
 276:	1f 93       	push	r17
 278:	7c 01       	movw	r14, r24
 27a:	16 2f       	mov	r17, r22
 27c:	69 e0       	ldi	r22, 0x09	; 9
 27e:	40 ec       	ldi	r20, 0xC0	; 192
 280:	20 e0       	ldi	r18, 0x00	; 0
 282:	0e 94 00 00 	call	0	; 0x0 <_ZN20AccelerometerMMA845110convertToGEPhb>
 286:	12 95       	swap	r17
 288:	11 0f       	add	r17, r17
 28a:	11 0f       	add	r17, r17
 28c:	10 7c       	andi	r17, 0xC0	; 192
 28e:	c7 01       	movw	r24, r14
 290:	69 e0       	ldi	r22, 0x09	; 9
 292:	40 ec       	ldi	r20, 0xC0	; 192
 294:	21 2f       	mov	r18, r17
 296:	0e 94 00 00 	call	0	; 0x0 <_ZN20AccelerometerMMA845110convertToGEPhb>
 29a:	1f 91       	pop	r17
 29c:	ff 90       	pop	r15
 29e:	ef 90       	pop	r14
 2a0:	08 95       	ret

000002a2 <_ZN20AccelerometerMMA845120highPassFilteredDataEb>:
 2a2:	6e e0       	ldi	r22, 0x0E	; 14
 2a4:	40 e1       	ldi	r20, 0x10	; 16
 2a6:	20 e1       	ldi	r18, 0x10	; 16
 2a8:	0e 94 00 00 	call	0	; 0x0 <_ZN20AccelerometerMMA845110convertToGEPhb>
 2ac:	08 95       	ret

000002ae <_ZN20AccelerometerMMA845132setHighPassFilterCutoffFrequencyENS_29HighPassFilterCutoffFrequencyE>:
 2ae:	26 2f       	mov	r18, r22
 2b0:	6f e0       	ldi	r22, 0x0F	; 15
 2b2:	43 e0       	ldi	r20, 0x03	; 3
 2b4:	0e 94 00 00 	call	0	; 0x0 <_ZN20AccelerometerMMA845110convertToGEPhb>
 2b8:	08 95       	ret

000002ba <_ZN20AccelerometerMMA845119setOversamplingModeENS_16OversamplingModeE>:
 2ba:	26 2f       	mov	r18, r22
 2bc:	6b e2       	ldi	r22, 0x2B	; 43
 2be:	43 e0       	ldi	r20, 0x03	; 3
 2c0:	0e 94 00 00 	call	0	; 0x0 <_ZN20AccelerometerMMA845110convertToGEPhb>
 2c4:	08 95       	ret

000002c6 <_ZN20AccelerometerMMA845111setReadModeENS_8ReadModeE>:
 2c6:	ef 92       	push	r14
 2c8:	ff 92       	push	r15
 2ca:	1f 93       	push	r17
 2cc:	7c 01       	movw	r14, r24
 2ce:	16 2f       	mov	r17, r22
 2d0:	26 2f       	mov	r18, r22
 2d2:	22 0f       	add	r18, r18
 2d4:	6a e2       	ldi	r22, 0x2A	; 42
 2d6:	42 e0       	ldi	r20, 0x02	; 2
 2d8:	0e 94 00 00 	call	0	; 0x0 <_ZN20AccelerometerMMA845110convertToGEPhb>
 2dc:	11 70       	andi	r17, 0x01	; 1
 2de:	11 0f       	add	r17, r17
 2e0:	f7 01       	movw	r30, r14
 2e2:	80 85       	ldd	r24, Z+8	; 0x08
 2e4:	8d 7f       	andi	r24, 0xFD	; 253
 2e6:	81 2b       	or	r24, r17
 2e8:	80 87       	std	Z+8, r24	; 0x08
 2ea:	1f 91       	pop	r17
 2ec:	ff 90       	pop	r15
 2ee:	ef 90       	pop	r14
 2f0:	08 95       	ret

000002f2 <_ZN20AccelerometerMMA845121setAslpOutputDataRateENS_18AslpOutputDataRateE>:
 2f2:	26 2f       	mov	r18, r22
 2f4:	22 95       	swap	r18
 2f6:	22 0f       	add	r18, r18
 2f8:	22 0f       	add	r18, r18
 2fa:	20 7c       	andi	r18, 0xC0	; 192
 2fc:	6a e2       	ldi	r22, 0x2A	; 42
 2fe:	40 ec       	ldi	r20, 0xC0	; 192
 300:	0e 94 00 00 	call	0	; 0x0 <_ZN20AccelerometerMMA845110convertToGEPhb>
 304:	08 95       	ret

00000306 <_ZN20AccelerometerMMA845120setInterruptPolarityENS_17InterruptPolarityE>:
 306:	26 2f       	mov	r18, r22
 308:	22 0f       	add	r18, r18
 30a:	6c e2       	ldi	r22, 0x2C	; 44
 30c:	42 e0       	ldi	r20, 0x02	; 2
 30e:	0e 94 00 00 	call	0	; 0x0 <_ZN20AccelerometerMMA845110convertToGEPhb>
 312:	08 95       	ret

00000314 <_ZN20AccelerometerMMA845114routeInterruptENS_9InterruptEh>:
 314:	36 2f       	mov	r19, r22
 316:	41 30       	cpi	r20, 0x01	; 1
 318:	01 f0       	breq	.+0      	; 0x31a <_ZN20AccelerometerMMA845114routeInterruptENS_9InterruptEh+0x6>
 31a:	20 e0       	ldi	r18, 0x00	; 0
 31c:	00 c0       	rjmp	.+0      	; 0x31e <_ZN20AccelerometerMMA845114routeInterruptENS_9InterruptEh+0xa>
 31e:	26 2f       	mov	r18, r22
 320:	6e e2       	ldi	r22, 0x2E	; 46
 322:	43 2f       	mov	r20, r19
 324:	0e 94 00 00 	call	0	; 0x0 <_ZN20AccelerometerMMA845110convertToGEPhb>
 328:	08 95       	ret

0000032a <_ZN20AccelerometerMMA845120routeInterruptToInt2ENS_9InterruptE>:
 32a:	46 2f       	mov	r20, r22
 32c:	6e e2       	ldi	r22, 0x2E	; 46
 32e:	20 e0       	ldi	r18, 0x00	; 0
 330:	0e 94 00 00 	call	0	; 0x0 <_ZN20AccelerometerMMA845110convertToGEPhb>
 334:	08 95       	ret

00000336 <_ZN20AccelerometerMMA845120routeInterruptToInt1ENS_9InterruptE>:
 336:	26 2f       	mov	r18, r22
 338:	6e e2       	ldi	r22, 0x2E	; 46
 33a:	42 2f       	mov	r20, r18
 33c:	0e 94 00 00 	call	0	; 0x0 <_ZN20AccelerometerMMA845110convertToGEPhb>
 340:	08 95       	ret

00000342 <_ZN20AccelerometerMMA845116disableInterruptENS_9InterruptE>:
 342:	46 2f       	mov	r20, r22
 344:	6d e2       	ldi	r22, 0x2D	; 45
 346:	20 e0       	ldi	r18, 0x00	; 0
 348:	0e 94 00 00 	call	0	; 0x0 <_ZN20AccelerometerMMA845110convertToGEPhb>
 34c:	08 95       	ret

0000034e <_ZN20AccelerometerMMA845115enableInterruptENS_9InterruptEh>:
 34e:	ef 92       	push	r14
 350:	ff 92       	push	r15
 352:	0f 93       	push	r16
 354:	1f 93       	push	r17
 356:	8c 01       	movw	r16, r24
 358:	f6 2e       	mov	r15, r22
 35a:	e4 2e       	mov	r14, r20
 35c:	6d e2       	ldi	r22, 0x2D	; 45
 35e:	4f 2d       	mov	r20, r15
 360:	2f 2d       	mov	r18, r15
 362:	0e 94 00 00 	call	0	; 0x0 <_ZN20AccelerometerMMA845110convertToGEPhb>
 366:	c8 01       	movw	r24, r16
 368:	6f 2d       	mov	r22, r15
 36a:	4e 2d       	mov	r20, r14
 36c:	0e 94 00 00 	call	0	; 0x0 <_ZN20AccelerometerMMA845110convertToGEPhb>
 370:	1f 91       	pop	r17
 372:	0f 91       	pop	r16
 374:	ff 90       	pop	r15
 376:	ef 90       	pop	r14
 378:	08 95       	ret

0000037a <_ZN20AccelerometerMMA845115enableInterruptENS_9InterruptE>:
 37a:	26 2f       	mov	r18, r22
 37c:	6d e2       	ldi	r22, 0x2D	; 45
 37e:	42 2f       	mov	r20, r18
 380:	0e 94 00 00 	call	0	; 0x0 <_ZN20AccelerometerMMA845110convertToGEPhb>
 384:	08 95       	ret

00000386 <_ZN20AccelerometerMMA845118setHysteresisAngleENS_15HysteresisAngleE>:
 386:	26 2f       	mov	r18, r22
 388:	64 e1       	ldi	r22, 0x14	; 20
 38a:	47 e0       	ldi	r20, 0x07	; 7
 38c:	0e 94 00 00 	call	0	; 0x0 <_ZN20AccelerometerMMA845110convertToGEPhb>
 390:	08 95       	ret

00000392 <_ZN20AccelerometerMMA845134setPortraitLandscapeThresholdAngleENS_31PortraitLandscapeThresholdAngleE>:
 392:	26 2f       	mov	r18, r22
 394:	22 0f       	add	r18, r18
 396:	22 0f       	add	r18, r18
 398:	22 0f       	add	r18, r18
 39a:	64 e1       	ldi	r22, 0x14	; 20
 39c:	48 ef       	ldi	r20, 0xF8	; 248
 39e:	0e 94 00 00 	call	0	; 0x0 <_ZN20AccelerometerMMA845110convertToGEPhb>
 3a2:	08 95       	ret

000003a4 <_ZN20AccelerometerMMA845122setZLockThresholdAngleENS_19ZLockThresholdAngleE>:
 3a4:	26 2f       	mov	r18, r22
 3a6:	63 e1       	ldi	r22, 0x13	; 19
 3a8:	47 e0       	ldi	r20, 0x07	; 7
 3aa:	0e 94 00 00 	call	0	; 0x0 <_ZN20AccelerometerMMA845110convertToGEPhb>
 3ae:	08 95       	ret

000003b0 <_ZN20AccelerometerMMA845116setBackFrontTripENS_13BackFrontTripE>:
 3b0:	26 2f       	mov	r18, r22
 3b2:	22 95       	swap	r18
 3b4:	22 0f       	add	r18, r18
 3b6:	22 0f       	add	r18, r18
 3b8:	20 7c       	andi	r18, 0xC0	; 192
 3ba:	63 e1       	ldi	r22, 0x13	; 19
 3bc:	40 ec       	ldi	r20, 0xC0	; 192
 3be:	0e 94 00 00 	call	0	; 0x0 <_ZN20AccelerometerMMA845110convertToGEPhb>
 3c2:	08 95       	ret

000003c4 <_ZN20AccelerometerMMA845129setPortraitLandscapeDetectionEb>:
 3c4:	66 23       	and	r22, r22
 3c6:	01 f4       	brne	.+0      	; 0x3c8 <_ZN20AccelerometerMMA845129setPortraitLandscapeDetectionEb+0x4>
 3c8:	20 e0       	ldi	r18, 0x00	; 0
 3ca:	00 c0       	rjmp	.+0      	; 0x3cc <_ZN20AccelerometerMMA845129setPortraitLandscapeDetectionEb+0x8>
 3cc:	20 e4       	ldi	r18, 0x40	; 64
 3ce:	61 e1       	ldi	r22, 0x11	; 17
 3d0:	40 e4       	ldi	r20, 0x40	; 64
 3d2:	0e 94 00 00 	call	0	; 0x0 <_ZN20AccelerometerMMA845110convertToGEPhb>
 3d6:	08 95       	ret

000003d8 <_ZN20AccelerometerMMA845117setOutputDataRateENS_14OutputDataRateE>:
 3d8:	26 2f       	mov	r18, r22
 3da:	22 0f       	add	r18, r18
 3dc:	22 0f       	add	r18, r18
 3de:	22 0f       	add	r18, r18
 3e0:	6a e2       	ldi	r22, 0x2A	; 42
 3e2:	48 e3       	ldi	r20, 0x38	; 56
 3e4:	0e 94 00 00 	call	0	; 0x0 <_ZN20AccelerometerMMA845110convertToGEPhb>
 3e8:	08 95       	ret

000003ea <_ZN20AccelerometerMMA845115setDynamicRangeENS_12DynamicRangeE>:
 3ea:	ff 92       	push	r15
 3ec:	0f 93       	push	r16
 3ee:	1f 93       	push	r17
 3f0:	8c 01       	movw	r16, r24
 3f2:	f6 2e       	mov	r15, r22
 3f4:	6e e0       	ldi	r22, 0x0E	; 14
 3f6:	43 e0       	ldi	r20, 0x03	; 3
 3f8:	2f 2d       	mov	r18, r15
 3fa:	0e 94 00 00 	call	0	; 0x0 <_ZN20AccelerometerMMA845110convertToGEPhb>
 3fe:	83 e0       	ldi	r24, 0x03	; 3
 400:	f8 22       	and	r15, r24
 402:	f8 01       	movw	r30, r16
 404:	87 81       	ldd	r24, Z+7	; 0x07
 406:	8c 7f       	andi	r24, 0xFC	; 252
 408:	8f 29       	or	r24, r15
 40a:	87 83       	std	Z+7, r24	; 0x07
 40c:	1f 91       	pop	r17
 40e:	0f 91       	pop	r16
 410:	ff 90       	pop	r15
 412:	08 95       	ret

00000414 <_ZN20AccelerometerMMA845116deviceActivationENS_16DeviceActivationE>:
 414:	26 2f       	mov	r18, r22
 416:	6a e2       	ldi	r22, 0x2A	; 42
 418:	41 e0       	ldi	r20, 0x01	; 1
 41a:	0e 94 00 00 	call	0	; 0x0 <_ZN20AccelerometerMMA845110convertToGEPhb>
 41e:	08 95       	ret

00000420 <_ZN20AccelerometerMMA84516readZgEv>:
 420:	cf 92       	push	r12
 422:	df 92       	push	r13
 424:	ef 92       	push	r14
 426:	ff 92       	push	r15
 428:	0f 93       	push	r16
 42a:	df 93       	push	r29
 42c:	cf 93       	push	r28
 42e:	00 d0       	rcall	.+0      	; 0x430 <_ZN20AccelerometerMMA84516readZgEv+0x10>
 430:	cd b7       	in	r28, 0x3d	; 61
 432:	de b7       	in	r29, 0x3e	; 62
 434:	7c 01       	movw	r14, r24
 436:	cd b6       	in	r12, 0x3d	; 61
 438:	de b6       	in	r13, 0x3e	; 62
 43a:	fc 01       	movw	r30, r24
 43c:	00 85       	ldd	r16, Z+8	; 0x08
 43e:	06 95       	lsr	r16
 440:	01 70       	andi	r16, 0x01	; 1
 442:	01 f0       	breq	.+0      	; 0x444 <_ZN20AccelerometerMMA84516readZgEv+0x24>
 444:	01 e0       	ldi	r16, 0x01	; 1
 446:	21 e0       	ldi	r18, 0x01	; 1
 448:	00 c0       	rjmp	.+0      	; 0x44a <_ZN20AccelerometerMMA84516readZgEv+0x2a>
 44a:	22 e0       	ldi	r18, 0x02	; 2
 44c:	8d b7       	in	r24, 0x3d	; 61
 44e:	9e b7       	in	r25, 0x3e	; 62
 450:	82 1b       	sub	r24, r18
 452:	91 09       	sbc	r25, r1
 454:	0f b6       	in	r0, 0x3f	; 63
 456:	f8 94       	cli
 458:	9e bf       	out	0x3e, r25	; 62
 45a:	0f be       	out	0x3f, r0	; 63
 45c:	8d bf       	out	0x3d, r24	; 61
 45e:	ed b7       	in	r30, 0x3d	; 61
 460:	fe b7       	in	r31, 0x3e	; 62
 462:	31 96       	adiw	r30, 0x01	; 1
 464:	fa 83       	std	Y+2, r31	; 0x02
 466:	e9 83       	std	Y+1, r30	; 0x01
 468:	c7 01       	movw	r24, r14
 46a:	65 e0       	ldi	r22, 0x05	; 5
 46c:	49 81       	ldd	r20, Y+1	; 0x01
 46e:	5a 81       	ldd	r21, Y+2	; 0x02
 470:	0e 94 00 00 	call	0	; 0x0 <_ZN20AccelerometerMMA845110convertToGEPhb>
 474:	c7 01       	movw	r24, r14
 476:	69 81       	ldd	r22, Y+1	; 0x01
 478:	7a 81       	ldd	r23, Y+2	; 0x02
 47a:	40 2f       	mov	r20, r16
 47c:	0e 94 00 00 	call	0	; 0x0 <_ZN20AccelerometerMMA845110convertToGEPhb>
 480:	0f b6       	in	r0, 0x3f	; 63
 482:	f8 94       	cli
 484:	de be       	out	0x3e, r13	; 62
 486:	0f be       	out	0x3f, r0	; 63
 488:	cd be       	out	0x3d, r12	; 61
 48a:	0f 90       	pop	r0
 48c:	0f 90       	pop	r0
 48e:	cf 91       	pop	r28
 490:	df 91       	pop	r29
 492:	0f 91       	pop	r16
 494:	ff 90       	pop	r15
 496:	ef 90       	pop	r14
 498:	df 90       	pop	r13
 49a:	cf 90       	pop	r12
 49c:	08 95       	ret

0000049e <_ZN20AccelerometerMMA84516readYgEv>:
 49e:	cf 92       	push	r12
 4a0:	df 92       	push	r13
 4a2:	ef 92       	push	r14
 4a4:	ff 92       	push	r15
 4a6:	0f 93       	push	r16
 4a8:	df 93       	push	r29
 4aa:	cf 93       	push	r28
 4ac:	00 d0       	rcall	.+0      	; 0x4ae <_ZN20AccelerometerMMA84516readYgEv+0x10>
 4ae:	cd b7       	in	r28, 0x3d	; 61
 4b0:	de b7       	in	r29, 0x3e	; 62
 4b2:	7c 01       	movw	r14, r24
 4b4:	cd b6       	in	r12, 0x3d	; 61
 4b6:	de b6       	in	r13, 0x3e	; 62
 4b8:	fc 01       	movw	r30, r24
 4ba:	00 85       	ldd	r16, Z+8	; 0x08
 4bc:	06 95       	lsr	r16
 4be:	01 70       	andi	r16, 0x01	; 1
 4c0:	01 f0       	breq	.+0      	; 0x4c2 <_ZN20AccelerometerMMA84516readYgEv+0x24>
 4c2:	01 e0       	ldi	r16, 0x01	; 1
 4c4:	21 e0       	ldi	r18, 0x01	; 1
 4c6:	00 c0       	rjmp	.+0      	; 0x4c8 <_ZN20AccelerometerMMA84516readYgEv+0x2a>
 4c8:	22 e0       	ldi	r18, 0x02	; 2
 4ca:	8d b7       	in	r24, 0x3d	; 61
 4cc:	9e b7       	in	r25, 0x3e	; 62
 4ce:	82 1b       	sub	r24, r18
 4d0:	91 09       	sbc	r25, r1
 4d2:	0f b6       	in	r0, 0x3f	; 63
 4d4:	f8 94       	cli
 4d6:	9e bf       	out	0x3e, r25	; 62
 4d8:	0f be       	out	0x3f, r0	; 63
 4da:	8d bf       	out	0x3d, r24	; 61
 4dc:	ed b7       	in	r30, 0x3d	; 61
 4de:	fe b7       	in	r31, 0x3e	; 62
 4e0:	31 96       	adiw	r30, 0x01	; 1
 4e2:	fa 83       	std	Y+2, r31	; 0x02
 4e4:	e9 83       	std	Y+1, r30	; 0x01
 4e6:	c7 01       	movw	r24, r14
 4e8:	63 e0       	ldi	r22, 0x03	; 3
 4ea:	49 81       	ldd	r20, Y+1	; 0x01
 4ec:	5a 81       	ldd	r21, Y+2	; 0x02
 4ee:	0e 94 00 00 	call	0	; 0x0 <_ZN20AccelerometerMMA845110convertToGEPhb>
 4f2:	c7 01       	movw	r24, r14
 4f4:	69 81       	ldd	r22, Y+1	; 0x01
 4f6:	7a 81       	ldd	r23, Y+2	; 0x02
 4f8:	40 2f       	mov	r20, r16
 4fa:	0e 94 00 00 	call	0	; 0x0 <_ZN20AccelerometerMMA845110convertToGEPhb>
 4fe:	0f b6       	in	r0, 0x3f	; 63
 500:	f8 94       	cli
 502:	de be       	out	0x3e, r13	; 62
 504:	0f be       	out	0x3f, r0	; 63
 506:	cd be       	out	0x3d, r12	; 61
 508:	0f 90       	pop	r0
 50a:	0f 90       	pop	r0
 50c:	cf 91       	pop	r28
 50e:	df 91       	pop	r29
 510:	0f 91       	pop	r16
 512:	ff 90       	pop	r15
 514:	ef 90       	pop	r14
 516:	df 90       	pop	r13
 518:	cf 90       	pop	r12
 51a:	08 95       	ret

0000051c <_ZN20AccelerometerMMA84516readXgEv>:
 51c:	cf 92       	push	r12
 51e:	df 92       	push	r13
 520:	ef 92       	push	r14
 522:	ff 92       	push	r15
 524:	0f 93       	push	r16
 526:	df 93       	push	r29
 528:	cf 93       	push	r28
 52a:	00 d0       	rcall	.+0      	; 0x52c <_ZN20AccelerometerMMA84516readXgEv+0x10>
 52c:	cd b7       	in	r28, 0x3d	; 61
 52e:	de b7       	in	r29, 0x3e	; 62
 530:	7c 01       	movw	r14, r24
 532:	cd b6       	in	r12, 0x3d	; 61
 534:	de b6       	in	r13, 0x3e	; 62
 536:	fc 01       	movw	r30, r24
 538:	00 85       	ldd	r16, Z+8	; 0x08
 53a:	06 95       	lsr	r16
 53c:	01 70       	andi	r16, 0x01	; 1
 53e:	01 f0       	breq	.+0      	; 0x540 <_ZN20AccelerometerMMA84516readXgEv+0x24>
 540:	01 e0       	ldi	r16, 0x01	; 1
 542:	21 e0       	ldi	r18, 0x01	; 1
 544:	00 c0       	rjmp	.+0      	; 0x546 <_ZN20AccelerometerMMA84516readXgEv+0x2a>
 546:	22 e0       	ldi	r18, 0x02	; 2
 548:	8d b7       	in	r24, 0x3d	; 61
 54a:	9e b7       	in	r25, 0x3e	; 62
 54c:	82 1b       	sub	r24, r18
 54e:	91 09       	sbc	r25, r1
 550:	0f b6       	in	r0, 0x3f	; 63
 552:	f8 94       	cli
 554:	9e bf       	out	0x3e, r25	; 62
 556:	0f be       	out	0x3f, r0	; 63
 558:	8d bf       	out	0x3d, r24	; 61
 55a:	ed b7       	in	r30, 0x3d	; 61
 55c:	fe b7       	in	r31, 0x3e	; 62
 55e:	31 96       	adiw	r30, 0x01	; 1
 560:	fa 83       	std	Y+2, r31	; 0x02
 562:	e9 83       	std	Y+1, r30	; 0x01
 564:	c7 01       	movw	r24, r14
 566:	61 e0       	ldi	r22, 0x01	; 1
 568:	49 81       	ldd	r20, Y+1	; 0x01
 56a:	5a 81       	ldd	r21, Y+2	; 0x02
 56c:	0e 94 00 00 	call	0	; 0x0 <_ZN20AccelerometerMMA845110convertToGEPhb>
 570:	c7 01       	movw	r24, r14
 572:	69 81       	ldd	r22, Y+1	; 0x01
 574:	7a 81       	ldd	r23, Y+2	; 0x02
 576:	40 2f       	mov	r20, r16
 578:	0e 94 00 00 	call	0	; 0x0 <_ZN20AccelerometerMMA845110convertToGEPhb>
 57c:	0f b6       	in	r0, 0x3f	; 63
 57e:	f8 94       	cli
 580:	de be       	out	0x3e, r13	; 62
 582:	0f be       	out	0x3f, r0	; 63
 584:	cd be       	out	0x3d, r12	; 61
 586:	0f 90       	pop	r0
 588:	0f 90       	pop	r0
 58a:	cf 91       	pop	r28
 58c:	df 91       	pop	r29
 58e:	0f 91       	pop	r16
 590:	ff 90       	pop	r15
 592:	ef 90       	pop	r14
 594:	df 90       	pop	r13
 596:	cf 90       	pop	r12
 598:	08 95       	ret

0000059a <_ZN20AccelerometerMMA8451C1Eb>:
 59a:	fc 01       	movw	r30, r24
 59c:	80 e0       	ldi	r24, 0x00	; 0
 59e:	90 e0       	ldi	r25, 0x00	; 0
 5a0:	91 83       	std	Z+1, r25	; 0x01
 5a2:	80 83       	st	Z, r24
 5a4:	61 70       	andi	r22, 0x01	; 1
 5a6:	6c 61       	ori	r22, 0x1C	; 28
 5a8:	66 83       	std	Z+6, r22	; 0x06
 5aa:	87 81       	ldd	r24, Z+7	; 0x07
 5ac:	8c 7f       	andi	r24, 0xFC	; 252
 5ae:	87 83       	std	Z+7, r24	; 0x07
 5b0:	80 85       	ldd	r24, Z+8	; 0x08
 5b2:	8d 7f       	andi	r24, 0xFD	; 253
 5b4:	80 87       	std	Z+8, r24	; 0x08
 5b6:	80 e0       	ldi	r24, 0x00	; 0
 5b8:	90 e0       	ldi	r25, 0x00	; 0
 5ba:	0e 94 00 00 	call	0	; 0x0 <_ZN20AccelerometerMMA845110convertToGEPhb>
 5be:	08 95       	ret

000005c0 <_ZN20AccelerometerMMA8451C2Eb>:
 5c0:	fc 01       	movw	r30, r24
 5c2:	80 e0       	ldi	r24, 0x00	; 0
 5c4:	90 e0       	ldi	r25, 0x00	; 0
 5c6:	91 83       	std	Z+1, r25	; 0x01
 5c8:	80 83       	st	Z, r24
 5ca:	61 70       	andi	r22, 0x01	; 1
 5cc:	6c 61       	ori	r22, 0x1C	; 28
 5ce:	66 83       	std	Z+6, r22	; 0x06
 5d0:	87 81       	ldd	r24, Z+7	; 0x07
 5d2:	8c 7f       	andi	r24, 0xFC	; 252
 5d4:	87 83       	std	Z+7, r24	; 0x07
 5d6:	80 85       	ldd	r24, Z+8	; 0x08
 5d8:	8d 7f       	andi	r24, 0xFD	; 253
 5da:	80 87       	std	Z+8, r24	; 0x08
 5dc:	80 e0       	ldi	r24, 0x00	; 0
 5de:	90 e0       	ldi	r25, 0x00	; 0
 5e0:	0e 94 00 00 	call	0	; 0x0 <_ZN20AccelerometerMMA845110convertToGEPhb>
 5e4:	08 95       	ret

AccelerometerMMA7455.o:     file format elf32-avr

Sections:
Idx Name          Size      VMA       LMA       File off  Algn
  0 .text         00000630  00000000  00000000  00000034  2**0
                  CONTENTS, ALLOC, LOAD, RELOC, READONLY, CODE
  1 .data         00000020  00000000  00000000  00000664  2**0
                  CONTENTS, ALLOC, LOAD, RELOC, DATA
  2 .bss          00000000  00000000  00000000  00000684  2**0
                  ALLOC
Disassembly of section .text:

00000000 <_ZN20AccelerometerMMA745510convertToGEPhb>:
   0:	0f 93       	push	r16
   2:	1f 93       	push	r17
   4:	df 93       	push	r29
   6:	cf 93       	push	r28
   8:	cd b7       	in	r28, 0x3d	; 61
   a:	de b7       	in	r29, 0x3e	; 62
   c:	2c 97       	sbiw	r28, 0x0c	; 12
   e:	0f b6       	in	r0, 0x3f	; 63
  10:	f8 94       	cli
  12:	de bf       	out	0x3e, r29	; 62
  14:	0f be       	out	0x3f, r0	; 63
  16:	cd bf       	out	0x3d, r28	; 61
  18:	8c 01       	movw	r16, r24
  1a:	fb 01       	movw	r30, r22
  1c:	44 23       	and	r20, r20
  1e:	01 f0       	breq	.+0      	; 0x20 <_ZN20AccelerometerMMA745510convertToGEPhb+0x20>
  20:	9e 01       	movw	r18, r28
  22:	2f 5f       	subi	r18, 0xFF	; 255
  24:	3f 4f       	sbci	r19, 0xFF	; 255
  26:	40 e0       	ldi	r20, 0x00	; 0
  28:	50 e0       	ldi	r21, 0x00	; 0
  2a:	8c e0       	ldi	r24, 0x0C	; 12
  2c:	da 01       	movw	r26, r20
  2e:	0d 90       	ld	r0, X+
  30:	ad 01       	movw	r20, r26
  32:	d9 01       	movw	r26, r18
  34:	0d 92       	st	X+, r0
  36:	9d 01       	movw	r18, r26
  38:	81 50       	subi	r24, 0x01	; 1
  3a:	01 f4       	brne	.+0      	; 0x3c <_ZN20AccelerometerMMA745510convertToGEPhb+0x3c>
  3c:	60 81       	ld	r22, Z
  3e:	70 e0       	ldi	r23, 0x00	; 0
  40:	80 e0       	ldi	r24, 0x00	; 0
  42:	90 e0       	ldi	r25, 0x00	; 0
  44:	0e 94 00 00 	call	0	; 0x0 <_ZN20AccelerometerMMA745510convertToGEPhb>
  48:	d8 01       	movw	r26, r16
  4a:	17 96       	adiw	r26, 0x07	; 7
  4c:	ec 91       	ld	r30, X
  4e:	e6 95       	lsr	r30
  50:	e6 95       	lsr	r30
  52:	e3 70       	andi	r30, 0x03	; 3
  54:	f0 e0       	ldi	r31, 0x00	; 0
  56:	ee 0f       	add	r30, r30
  58:	ff 1f       	adc	r31, r31
  5a:	ee 0f       	add	r30, r30
  5c:	ff 1f       	adc	r31, r31
  5e:	ec 0f       	add	r30, r28
  60:	fd 1f       	adc	r31, r29
  62:	21 81       	ldd	r18, Z+1	; 0x01
  64:	32 81       	ldd	r19, Z+2	; 0x02
  66:	43 81       	ldd	r20, Z+3	; 0x03
  68:	54 81       	ldd	r21, Z+4	; 0x04
  6a:	0e 94 00 00 	call	0	; 0x0 <_ZN20AccelerometerMMA745510convertToGEPhb>
  6e:	00 c0       	rjmp	.+0      	; 0x70 <_ZN20AccelerometerMMA745510convertToGEPhb+0x70>
  70:	81 81       	ldd	r24, Z+1	; 0x01
  72:	81 ff       	sbrs	r24, 1
  74:	00 c0       	rjmp	.+0      	; 0x76 <_ZN20AccelerometerMMA745510convertToGEPhb+0x76>
  76:	8c 6f       	ori	r24, 0xFC	; 252
  78:	81 83       	std	Z+1, r24	; 0x01
  7a:	71 81       	ldd	r23, Z+1	; 0x01
  7c:	60 e0       	ldi	r22, 0x00	; 0
  7e:	20 81       	ld	r18, Z
  80:	30 e0       	ldi	r19, 0x00	; 0
  82:	62 2b       	or	r22, r18
  84:	73 2b       	or	r23, r19
  86:	88 27       	eor	r24, r24
  88:	77 fd       	sbrc	r23, 7
  8a:	80 95       	com	r24
  8c:	98 2f       	mov	r25, r24
  8e:	0e 94 00 00 	call	0	; 0x0 <_ZN20AccelerometerMMA745510convertToGEPhb>
  92:	20 e0       	ldi	r18, 0x00	; 0
  94:	30 e0       	ldi	r19, 0x00	; 0
  96:	40 e8       	ldi	r20, 0x80	; 128
  98:	5c e3       	ldi	r21, 0x3C	; 60
  9a:	0e 94 00 00 	call	0	; 0x0 <_ZN20AccelerometerMMA745510convertToGEPhb>
  9e:	e6 2f       	mov	r30, r22
  a0:	2e 2f       	mov	r18, r30
  a2:	37 2f       	mov	r19, r23
  a4:	48 2f       	mov	r20, r24
  a6:	59 2f       	mov	r21, r25
  a8:	b9 01       	movw	r22, r18
  aa:	ca 01       	movw	r24, r20
  ac:	2c 96       	adiw	r28, 0x0c	; 12
  ae:	0f b6       	in	r0, 0x3f	; 63
  b0:	f8 94       	cli
  b2:	de bf       	out	0x3e, r29	; 62
  b4:	0f be       	out	0x3f, r0	; 63
  b6:	cd bf       	out	0x3d, r28	; 61
  b8:	cf 91       	pop	r28
  ba:	df 91       	pop	r29
  bc:	1f 91       	pop	r17
  be:	0f 91       	pop	r16
  c0:	08 95       	ret

000000c2 <_ZN20AccelerometerMMA745517readRegisterBlockEhPhh>:
  c2:	cf 92       	push	r12
  c4:	df 92       	push	r13
  c6:	ef 92       	push	r14
  c8:	ff 92       	push	r15
  ca:	0f 93       	push	r16
  cc:	1f 93       	push	r17
  ce:	cf 93       	push	r28
  d0:	df 93       	push	r29
  d2:	8c 01       	movw	r16, r24
  d4:	f6 2e       	mov	r15, r22
  d6:	6a 01       	movw	r12, r20
  d8:	e2 2e       	mov	r14, r18
  da:	80 e0       	ldi	r24, 0x00	; 0
  dc:	90 e0       	ldi	r25, 0x00	; 0
  de:	f8 01       	movw	r30, r16
  e0:	66 81       	ldd	r22, Z+6	; 0x06
  e2:	0e 94 00 00 	call	0	; 0x0 <_ZN20AccelerometerMMA745510convertToGEPhb>
  e6:	80 e0       	ldi	r24, 0x00	; 0
  e8:	90 e0       	ldi	r25, 0x00	; 0
  ea:	6f 2d       	mov	r22, r15
  ec:	0e 94 00 00 	call	0	; 0x0 <_ZN20AccelerometerMMA745510convertToGEPhb>
  f0:	80 e0       	ldi	r24, 0x00	; 0
  f2:	90 e0       	ldi	r25, 0x00	; 0
  f4:	61 e0       	ldi	r22, 0x01	; 1
  f6:	0e 94 00 00 	call	0	; 0x0 <_ZN20AccelerometerMMA745510convertToGEPhb>
  fa:	80 e0       	ldi	r24, 0x00	; 0
  fc:	90 e0       	ldi	r25, 0x00	; 0
  fe:	f8 01       	movw	r30, r16
 100:	66 81       	ldd	r22, Z+6	; 0x06
 102:	4e 2d       	mov	r20, r14
 104:	0e 94 00 00 	call	0	; 0x0 <_ZN20AccelerometerMMA745510convertToGEPhb>
 108:	c0 e0       	ldi	r28, 0x00	; 0
 10a:	d0 e0       	ldi	r29, 0x00	; 0
 10c:	ff 24       	eor	r15, r15
 10e:	00 c0       	rjmp	.+0      	; 0x110 <_ZN20AccelerometerMMA745517readRegisterBlockEhPhh+0x4e>
 110:	80 e0       	ldi	r24, 0x00	; 0
 112:	90 e0       	ldi	r25, 0x00	; 0
 114:	0e 94 00 00 	call	0	; 0x0 <_ZN20AccelerometerMMA745510convertToGEPhb>
 118:	89 2b       	or	r24, r25
 11a:	01 f0       	breq	.+0      	; 0x11c <_ZN20AccelerometerMMA745517readRegisterBlockEhPhh+0x5a>
 11c:	80 e0       	ldi	r24, 0x00	; 0
 11e:	90 e0       	ldi	r25, 0x00	; 0
 120:	0e 94 00 00 	call	0	; 0x0 <_ZN20AccelerometerMMA745510convertToGEPhb>
 124:	f6 01       	movw	r30, r12
 126:	ec 0f       	add	r30, r28
 128:	fd 1f       	adc	r31, r29
 12a:	80 83       	st	Z, r24
 12c:	21 96       	adiw	r28, 0x01	; 1
 12e:	ce 15       	cp	r28, r14
 130:	df 05       	cpc	r29, r15
 132:	04 f0       	brlt	.+0      	; 0x134 <_ZN20AccelerometerMMA745517readRegisterBlockEhPhh+0x72>
 134:	df 91       	pop	r29
 136:	cf 91       	pop	r28
 138:	1f 91       	pop	r17
 13a:	0f 91       	pop	r16
 13c:	ff 90       	pop	r15
 13e:	ef 90       	pop	r14
 140:	df 90       	pop	r13
 142:	cf 90       	pop	r12
 144:	08 95       	ret

00000146 <_ZN20AccelerometerMMA745512readRegisterENS_8LocationE>:
 146:	df 93       	push	r29
 148:	cf 93       	push	r28
 14a:	0f 92       	push	r0
 14c:	cd b7       	in	r28, 0x3d	; 61
 14e:	de b7       	in	r29, 0x3e	; 62
 150:	ae 01       	movw	r20, r28
 152:	4f 5f       	subi	r20, 0xFF	; 255
 154:	5f 4f       	sbci	r21, 0xFF	; 255
 156:	21 e0       	ldi	r18, 0x01	; 1
 158:	0e 94 00 00 	call	0	; 0x0 <_ZN20AccelerometerMMA745510convertToGEPhb>
 15c:	89 81       	ldd	r24, Y+1	; 0x01
 15e:	0f 90       	pop	r0
 160:	cf 91       	pop	r28
 162:	df 91       	pop	r29
 164:	08 95       	ret

00000166 <_ZN20AccelerometerMMA745511isDataReadyEv>:
 166:	69 e0       	ldi	r22, 0x09	; 9
 168:	0e 94 00 00 	call	0	; 0x0 <_ZN20AccelerometerMMA745510convertToGEPhb>
 16c:	98 2f       	mov	r25, r24
 16e:	91 70       	andi	r25, 0x01	; 1
 170:	80 fd       	sbrc	r24, 0
 172:	91 e0       	ldi	r25, 0x01	; 1
 174:	89 2f       	mov	r24, r25
 176:	08 95       	ret

00000178 <_ZN20AccelerometerMMA74557readXYZEPh>:
 178:	fc 01       	movw	r30, r24
 17a:	ab 01       	movw	r20, r22
 17c:	80 85       	ldd	r24, Z+8	; 0x08
 17e:	88 23       	and	r24, r24
 180:	01 f4       	brne	.+0      	; 0x182 <_ZN20AccelerometerMMA74557readXYZEPh+0xa>
 182:	26 e0       	ldi	r18, 0x06	; 6
 184:	60 e0       	ldi	r22, 0x00	; 0
 186:	00 c0       	rjmp	.+0      	; 0x188 <_ZN20AccelerometerMMA74557readXYZEPh+0x10>
 188:	23 e0       	ldi	r18, 0x03	; 3
 18a:	66 e0       	ldi	r22, 0x06	; 6
 18c:	cf 01       	movw	r24, r30
 18e:	0e 94 00 00 	call	0	; 0x0 <_ZN20AccelerometerMMA745510convertToGEPhb>
 192:	08 95       	ret

00000194 <_ZN20AccelerometerMMA745517fillRegisterBlockEhhh>:
 194:	ff 92       	push	r15
 196:	0f 93       	push	r16
 198:	1f 93       	push	r17
 19a:	cf 93       	push	r28
 19c:	df 93       	push	r29
 19e:	fc 01       	movw	r30, r24
 1a0:	16 2f       	mov	r17, r22
 1a2:	f4 2e       	mov	r15, r20
 1a4:	02 2f       	mov	r16, r18
 1a6:	80 e0       	ldi	r24, 0x00	; 0
 1a8:	90 e0       	ldi	r25, 0x00	; 0
 1aa:	66 81       	ldd	r22, Z+6	; 0x06
 1ac:	0e 94 00 00 	call	0	; 0x0 <_ZN20AccelerometerMMA745510convertToGEPhb>
 1b0:	80 e0       	ldi	r24, 0x00	; 0
 1b2:	90 e0       	ldi	r25, 0x00	; 0
 1b4:	61 2f       	mov	r22, r17
 1b6:	0e 94 00 00 	call	0	; 0x0 <_ZN20AccelerometerMMA745510convertToGEPhb>
 1ba:	c0 e0       	ldi	r28, 0x00	; 0
 1bc:	d0 e0       	ldi	r29, 0x00	; 0
 1be:	10 e0       	ldi	r17, 0x00	; 0
 1c0:	00 c0       	rjmp	.+0      	; 0x1c2 <_ZN20AccelerometerMMA745517fillRegisterBlockEhhh+0x2e>
 1c2:	80 e0       	ldi	r24, 0x00	; 0
 1c4:	90 e0       	ldi	r25, 0x00	; 0
 1c6:	6f 2d       	mov	r22, r15
 1c8:	0e 94 00 00 	call	0	; 0x0 <_ZN20AccelerometerMMA745510convertToGEPhb>
 1cc:	21 96       	adiw	r28, 0x01	; 1
 1ce:	c0 17       	cp	r28, r16
 1d0:	d1 07       	cpc	r29, r17
 1d2:	04 f0       	brlt	.+0      	; 0x1d4 <_ZN20AccelerometerMMA745517fillRegisterBlockEhhh+0x40>
 1d4:	80 e0       	ldi	r24, 0x00	; 0
 1d6:	90 e0       	ldi	r25, 0x00	; 0
 1d8:	0e 94 00 00 	call	0	; 0x0 <_ZN20AccelerometerMMA745510convertToGEPhb>
 1dc:	df 91       	pop	r29
 1de:	cf 91       	pop	r28
 1e0:	1f 91       	pop	r17
 1e2:	0f 91       	pop	r16
 1e4:	ff 90       	pop	r15
 1e6:	08 95       	ret

000001e8 <_ZN20AccelerometerMMA745518writeRegisterBlockEhPhh>:
 1e8:	ef 92       	push	r14
 1ea:	ff 92       	push	r15
 1ec:	0f 93       	push	r16
 1ee:	1f 93       	push	r17
 1f0:	cf 93       	push	r28
 1f2:	df 93       	push	r29
 1f4:	fc 01       	movw	r30, r24
 1f6:	16 2f       	mov	r17, r22
 1f8:	7a 01       	movw	r14, r20
 1fa:	02 2f       	mov	r16, r18
 1fc:	80 e0       	ldi	r24, 0x00	; 0
 1fe:	90 e0       	ldi	r25, 0x00	; 0
 200:	66 81       	ldd	r22, Z+6	; 0x06
 202:	0e 94 00 00 	call	0	; 0x0 <_ZN20AccelerometerMMA745510convertToGEPhb>
 206:	80 e0       	ldi	r24, 0x00	; 0
 208:	90 e0       	ldi	r25, 0x00	; 0
 20a:	61 2f       	mov	r22, r17
 20c:	0e 94 00 00 	call	0	; 0x0 <_ZN20AccelerometerMMA745510convertToGEPhb>
 210:	c0 e0       	ldi	r28, 0x00	; 0
 212:	d0 e0       	ldi	r29, 0x00	; 0
 214:	10 e0       	ldi	r17, 0x00	; 0
 216:	00 c0       	rjmp	.+0      	; 0x218 <_ZN20AccelerometerMMA745518writeRegisterBlockEhPhh+0x30>
 218:	f7 01       	movw	r30, r14
 21a:	ec 0f       	add	r30, r28
 21c:	fd 1f       	adc	r31, r29
 21e:	80 e0       	ldi	r24, 0x00	; 0
 220:	90 e0       	ldi	r25, 0x00	; 0
 222:	60 81       	ld	r22, Z
 224:	0e 94 00 00 	call	0	; 0x0 <_ZN20AccelerometerMMA745510convertToGEPhb>
 228:	21 96       	adiw	r28, 0x01	; 1
 22a:	c0 17       	cp	r28, r16
 22c:	d1 07       	cpc	r29, r17
 22e:	04 f0       	brlt	.+0      	; 0x230 <_ZN20AccelerometerMMA745518writeRegisterBlockEhPhh+0x48>
 230:	80 e0       	ldi	r24, 0x00	; 0
 232:	90 e0       	ldi	r25, 0x00	; 0
 234:	0e 94 00 00 	call	0	; 0x0 <_ZN20AccelerometerMMA745510convertToGEPhb>
 238:	df 91       	pop	r29
 23a:	cf 91       	pop	r28
 23c:	1f 91       	pop	r17
 23e:	0f 91       	pop	r16
 240:	ff 90       	pop	r15
 242:	ef 90       	pop	r14
 244:	08 95       	ret

00000246 <_ZN20AccelerometerMMA745513writeRegisterENS_8LocationEh>:
 246:	df 93       	push	r29
 248:	cf 93       	push	r28
 24a:	0f 92       	push	r0
 24c:	cd b7       	in	r28, 0x3d	; 61
 24e:	de b7       	in	r29, 0x3e	; 62
 250:	49 83       	std	Y+1, r20	; 0x01
 252:	ae 01       	movw	r20, r28
 254:	4f 5f       	subi	r20, 0xFF	; 255
 256:	5f 4f       	sbci	r21, 0xFF	; 255
 258:	21 e0       	ldi	r18, 0x01	; 1
 25a:	0e 94 00 00 	call	0	; 0x0 <_ZN20AccelerometerMMA745510convertToGEPhb>
 25e:	0f 90       	pop	r0
 260:	cf 91       	pop	r28
 262:	df 91       	pop	r29
 264:	08 95       	ret

00000266 <_ZN20AccelerometerMMA745521configureRegisterBitsENS_8LocationENS_4MaskEh>:
 266:	df 92       	push	r13
 268:	ef 92       	push	r14
 26a:	ff 92       	push	r15
 26c:	0f 93       	push	r16
 26e:	1f 93       	push	r17
 270:	7c 01       	movw	r14, r24
 272:	d6 2e       	mov	r13, r22
 274:	04 2f       	mov	r16, r20
 276:	12 2f       	mov	r17, r18
 278:	0e 94 00 00 	call	0	; 0x0 <_ZN20AccelerometerMMA745510convertToGEPhb>
 27c:	40 2f       	mov	r20, r16
 27e:	40 95       	com	r20
 280:	48 23       	and	r20, r24
 282:	10 23       	and	r17, r16
 284:	41 2b       	or	r20, r17
 286:	c7 01       	movw	r24, r14
 288:	6d 2d       	mov	r22, r13
 28a:	0e 94 00 00 	call	0	; 0x0 <_ZN20AccelerometerMMA745510convertToGEPhb>
 28e:	1f 91       	pop	r17
 290:	0f 91       	pop	r16
 292:	ff 90       	pop	r15
 294:	ef 90       	pop	r14
 296:	df 90       	pop	r13
 298:	08 95       	ret

0000029a <_ZN20AccelerometerMMA745525setInterruptConfigurationENS_22InterruptConfigurationE>:
 29a:	26 2f       	mov	r18, r22
 29c:	22 0f       	add	r18, r18
 29e:	22 0f       	add	r18, r18
 2a0:	68 e1       	ldi	r22, 0x18	; 24
 2a2:	46 e0       	ldi	r20, 0x06	; 6
 2a4:	0e 94 00 00 	call	0	; 0x0 <_ZN20AccelerometerMMA745510convertToGEPhb>
 2a8:	08 95       	ret

000002aa <_ZN20AccelerometerMMA745516disableInterruptENS_4AxisE>:
 2aa:	61 30       	cpi	r22, 0x01	; 1
 2ac:	01 f0       	breq	.+0      	; 0x2ae <_ZN20AccelerometerMMA745516disableInterruptENS_4AxisE+0x4>
 2ae:	62 30       	cpi	r22, 0x02	; 2
 2b0:	01 f0       	breq	.+0      	; 0x2b2 <_ZN20AccelerometerMMA745516disableInterruptENS_4AxisE+0x8>
 2b2:	48 e0       	ldi	r20, 0x08	; 8
 2b4:	00 c0       	rjmp	.+0      	; 0x2b6 <_ZN20AccelerometerMMA745516disableInterruptENS_4AxisE+0xc>
 2b6:	40 e1       	ldi	r20, 0x10	; 16
 2b8:	68 e1       	ldi	r22, 0x18	; 24
 2ba:	20 e0       	ldi	r18, 0x00	; 0
 2bc:	0e 94 00 00 	call	0	; 0x0 <_ZN20AccelerometerMMA745510convertToGEPhb>
 2c0:	08 95       	ret

000002c2 <_ZN20AccelerometerMMA745515enableInterruptENS_4AxisE>:
 2c2:	61 30       	cpi	r22, 0x01	; 1
 2c4:	01 f0       	breq	.+0      	; 0x2c6 <_ZN20AccelerometerMMA745515enableInterruptENS_4AxisE+0x4>
 2c6:	62 30       	cpi	r22, 0x02	; 2
 2c8:	01 f0       	breq	.+0      	; 0x2ca <_ZN20AccelerometerMMA745515enableInterruptENS_4AxisE+0x8>
 2ca:	48 e0       	ldi	r20, 0x08	; 8
 2cc:	00 c0       	rjmp	.+0      	; 0x2ce <_ZN20AccelerometerMMA745515enableInterruptENS_4AxisE+0xc>
 2ce:	40 e1       	ldi	r20, 0x10	; 16
 2d0:	68 e1       	ldi	r22, 0x18	; 24
 2d2:	2f ef       	ldi	r18, 0xFF	; 255
 2d4:	0e 94 00 00 	call	0	; 0x0 <_ZN20AccelerometerMMA745510convertToGEPhb>
 2d8:	08 95       	ret

000002da <_ZN20AccelerometerMMA745515setDynamicRangeENS_12DynamicRangeE>:
 2da:	1f 93       	push	r17
 2dc:	cf 93       	push	r28
 2de:	df 93       	push	r29
 2e0:	ec 01       	movw	r28, r24
 2e2:	16 2f       	mov	r17, r22
 2e4:	26 2f       	mov	r18, r22
 2e6:	22 0f       	add	r18, r18
 2e8:	22 0f       	add	r18, r18
 2ea:	66 e1       	ldi	r22, 0x16	; 22
 2ec:	4c e0       	ldi	r20, 0x0C	; 12
 2ee:	0e 94 00 00 	call	0	; 0x0 <_ZN20AccelerometerMMA745510convertToGEPhb>
 2f2:	11 23       	and	r17, r17
 2f4:	01 f0       	breq	.+0      	; 0x2f6 <_ZN20AccelerometerMMA745515setDynamicRangeENS_12DynamicRangeE+0x1c>
 2f6:	81 e0       	ldi	r24, 0x01	; 1
 2f8:	88 87       	std	Y+8, r24	; 0x08
 2fa:	13 70       	andi	r17, 0x03	; 3
 2fc:	11 0f       	add	r17, r17
 2fe:	11 0f       	add	r17, r17
 300:	8f 81       	ldd	r24, Y+7	; 0x07
 302:	83 7f       	andi	r24, 0xF3	; 243
 304:	81 2b       	or	r24, r17
 306:	8f 83       	std	Y+7, r24	; 0x07
 308:	df 91       	pop	r29
 30a:	cf 91       	pop	r28
 30c:	1f 91       	pop	r17
 30e:	08 95       	ret

00000310 <_ZN20AccelerometerMMA745510setUse8bitEb>:
 310:	fc 01       	movw	r30, r24
 312:	60 87       	std	Z+8, r22	; 0x08
 314:	66 23       	and	r22, r22
 316:	01 f4       	brne	.+0      	; 0x318 <_ZN20AccelerometerMMA745510setUse8bitEb+0x8>
 318:	0e 94 00 00 	call	0	; 0x0 <_ZN20AccelerometerMMA745510convertToGEPhb>
 31c:	08 95       	ret

0000031e <_ZN20AccelerometerMMA745521setDetectionConditionENS_18DetectionConditionE>:
 31e:	26 2f       	mov	r18, r22
 320:	69 e1       	ldi	r22, 0x19	; 25
 322:	41 e0       	ldi	r20, 0x01	; 1
 324:	0e 94 00 00 	call	0	; 0x0 <_ZN20AccelerometerMMA745510convertToGEPhb>
 328:	08 95       	ret

0000032a <_ZN20AccelerometerMMA745513setDeviceModeENS_10DeviceModeE>:
 32a:	ff 92       	push	r15
 32c:	0f 93       	push	r16
 32e:	1f 93       	push	r17
 330:	8c 01       	movw	r16, r24
 332:	f6 2e       	mov	r15, r22
 334:	66 e1       	ldi	r22, 0x16	; 22
 336:	43 e0       	ldi	r20, 0x03	; 3
 338:	2f 2d       	mov	r18, r15
 33a:	0e 94 00 00 	call	0	; 0x0 <_ZN20AccelerometerMMA745510convertToGEPhb>
 33e:	83 e0       	ldi	r24, 0x03	; 3
 340:	f8 22       	and	r15, r24
 342:	f8 01       	movw	r30, r16
 344:	87 81       	ldd	r24, Z+7	; 0x07
 346:	8c 7f       	andi	r24, 0xFC	; 252
 348:	8f 29       	or	r24, r15
 34a:	87 83       	std	Z+7, r24	; 0x07
 34c:	1f 91       	pop	r17
 34e:	0f 91       	pop	r16
 350:	ff 90       	pop	r15
 352:	08 95       	ret

00000354 <_ZN20AccelerometerMMA74556readZgEv>:
 354:	cf 92       	push	r12
 356:	df 92       	push	r13
 358:	ef 92       	push	r14
 35a:	ff 92       	push	r15
 35c:	0f 93       	push	r16
 35e:	1f 93       	push	r17
 360:	df 93       	push	r29
 362:	cf 93       	push	r28
 364:	cd b7       	in	r28, 0x3d	; 61
 366:	de b7       	in	r29, 0x3e	; 62
 368:	7c 01       	movw	r14, r24
 36a:	cd b6       	in	r12, 0x3d	; 61
 36c:	de b6       	in	r13, 0x3e	; 62
 36e:	fc 01       	movw	r30, r24
 370:	80 85       	ldd	r24, Z+8	; 0x08
 372:	88 23       	and	r24, r24
 374:	01 f4       	brne	.+0      	; 0x376 <_ZN20AccelerometerMMA74556readZgEv+0x22>
 376:	22 e0       	ldi	r18, 0x02	; 2
 378:	64 e0       	ldi	r22, 0x04	; 4
 37a:	00 c0       	rjmp	.+0      	; 0x37c <_ZN20AccelerometerMMA74556readZgEv+0x28>
 37c:	21 e0       	ldi	r18, 0x01	; 1
 37e:	68 e0       	ldi	r22, 0x08	; 8
 380:	8d b7       	in	r24, 0x3d	; 61
 382:	9e b7       	in	r25, 0x3e	; 62
 384:	82 1b       	sub	r24, r18
 386:	91 09       	sbc	r25, r1
 388:	0f b6       	in	r0, 0x3f	; 63
 38a:	f8 94       	cli
 38c:	9e bf       	out	0x3e, r25	; 62
 38e:	0f be       	out	0x3f, r0	; 63
 390:	8d bf       	out	0x3d, r24	; 61
 392:	0d b7       	in	r16, 0x3d	; 61
 394:	1e b7       	in	r17, 0x3e	; 62
 396:	0f 5f       	subi	r16, 0xFF	; 255
 398:	1f 4f       	sbci	r17, 0xFF	; 255
 39a:	c7 01       	movw	r24, r14
 39c:	a8 01       	movw	r20, r16
 39e:	0e 94 00 00 	call	0	; 0x0 <_ZN20AccelerometerMMA745510convertToGEPhb>
 3a2:	c7 01       	movw	r24, r14
 3a4:	b8 01       	movw	r22, r16
 3a6:	f7 01       	movw	r30, r14
 3a8:	40 85       	ldd	r20, Z+8	; 0x08
 3aa:	0e 94 00 00 	call	0	; 0x0 <_ZN20AccelerometerMMA745510convertToGEPhb>
 3ae:	0f b6       	in	r0, 0x3f	; 63
 3b0:	f8 94       	cli
 3b2:	de be       	out	0x3e, r13	; 62
 3b4:	0f be       	out	0x3f, r0	; 63
 3b6:	cd be       	out	0x3d, r12	; 61
 3b8:	cf 91       	pop	r28
 3ba:	df 91       	pop	r29
 3bc:	1f 91       	pop	r17
 3be:	0f 91       	pop	r16
 3c0:	ff 90       	pop	r15
 3c2:	ef 90       	pop	r14
 3c4:	df 90       	pop	r13
 3c6:	cf 90       	pop	r12
 3c8:	08 95       	ret

000003ca <_ZN20AccelerometerMMA74556readYgEv>:
 3ca:	cf 92       	push	r12
 3cc:	df 92       	push	r13
 3ce:	ef 92       	push	r14
 3d0:	ff 92       	push	r15
 3d2:	0f 93       	push	r16
 3d4:	1f 93       	push	r17
 3d6:	df 93       	push	r29
 3d8:	cf 93       	push	r28
 3da:	cd b7       	in	r28, 0x3d	; 61
 3dc:	de b7       	in	r29, 0x3e	; 62
 3de:	7c 01       	movw	r14, r24
 3e0:	cd b6       	in	r12, 0x3d	; 61
 3e2:	de b6       	in	r13, 0x3e	; 62
 3e4:	fc 01       	movw	r30, r24
 3e6:	80 85       	ldd	r24, Z+8	; 0x08
 3e8:	88 23       	and	r24, r24
 3ea:	01 f4       	brne	.+0      	; 0x3ec <_ZN20AccelerometerMMA74556readYgEv+0x22>
 3ec:	22 e0       	ldi	r18, 0x02	; 2
 3ee:	62 e0       	ldi	r22, 0x02	; 2
 3f0:	00 c0       	rjmp	.+0      	; 0x3f2 <_ZN20AccelerometerMMA74556readYgEv+0x28>
 3f2:	21 e0       	ldi	r18, 0x01	; 1
 3f4:	67 e0       	ldi	r22, 0x07	; 7
 3f6:	8d b7       	in	r24, 0x3d	; 61
 3f8:	9e b7       	in	r25, 0x3e	; 62
 3fa:	82 1b       	sub	r24, r18
 3fc:	91 09       	sbc	r25, r1
 3fe:	0f b6       	in	r0, 0x3f	; 63
 400:	f8 94       	cli
 402:	9e bf       	out	0x3e, r25	; 62
 404:	0f be       	out	0x3f, r0	; 63
 406:	8d bf       	out	0x3d, r24	; 61
 408:	0d b7       	in	r16, 0x3d	; 61
 40a:	1e b7       	in	r17, 0x3e	; 62
 40c:	0f 5f       	subi	r16, 0xFF	; 255
 40e:	1f 4f       	sbci	r17, 0xFF	; 255
 410:	c7 01       	movw	r24, r14
 412:	a8 01       	movw	r20, r16
 414:	0e 94 00 00 	call	0	; 0x0 <_ZN20AccelerometerMMA745510convertToGEPhb>
 418:	c7 01       	movw	r24, r14
 41a:	b8 01       	movw	r22, r16
 41c:	f7 01       	movw	r30, r14
 41e:	40 85       	ldd	r20, Z+8	; 0x08
 420:	0e 94 00 00 	call	0	; 0x0 <_ZN20AccelerometerMMA745510convertToGEPhb>
 424:	0f b6       	in	r0, 0x3f	; 63
 426:	f8 94       	cli
 428:	de be       	out	0x3e, r13	; 62
 42a:	0f be       	out	0x3f, r0	; 63
 42c:	cd be       	out	0x3d, r12	; 61
 42e:	cf 91       	pop	r28
 430:	df 91       	pop	r29
 432:	1f 91       	pop	r17
 434:	0f 91       	pop	r16
 436:	ff 90       	pop	r15
 438:	ef 90       	pop	r14
 43a:	df 90       	pop	r13
 43c:	cf 90       	pop	r12
 43e:	08 95       	ret

00000440 <_ZN20AccelerometerMMA74556readXgEv>:
 440:	cf 92       	push	r12
 442:	df 92       	push	r13
 444:	ef 92       	push	r14
 446:	ff 92       	push	r15
 448:	0f 93       	push	r16
 44a:	1f 93       	push	r17
 44c:	df 93       	push	r29
 44e:	cf 93       	push	r28
 450:	cd b7       	in	r28, 0x3d	; 61
 452:	de b7       	in	r29, 0x3e	; 62
 454:	7c 01       	movw	r14, r24
 456:	cd b6       	in	r12, 0x3d	; 61
 458:	de b6       	in	r13, 0x3e	; 62
 45a:	fc 01       	movw	r30, r24
 45c:	80 85       	ldd	r24, Z+8	; 0x08
 45e:	88 23       	and	r24, r24
 460:	01 f4       	brne	.+0      	; 0x462 <_ZN20AccelerometerMMA74556readXgEv+0x22>
 462:	22 e0       	ldi	r18, 0x02	; 2
 464:	60 e0       	ldi	r22, 0x00	; 0
 466:	00 c0       	rjmp	.+0      	; 0x468 <_ZN20AccelerometerMMA74556readXgEv+0x28>
 468:	21 e0       	ldi	r18, 0x01	; 1
 46a:	66 e0       	ldi	r22, 0x06	; 6
 46c:	8d b7       	in	r24, 0x3d	; 61
 46e:	9e b7       	in	r25, 0x3e	; 62
 470:	82 1b       	sub	r24, r18
 472:	91 09       	sbc	r25, r1
 474:	0f b6       	in	r0, 0x3f	; 63
 476:	f8 94       	cli
 478:	9e bf       	out	0x3e, r25	; 62
 47a:	0f be       	out	0x3f, r0	; 63
 47c:	8d bf       	out	0x3d, r24	; 61
 47e:	0d b7       	in	r16, 0x3d	; 61
 480:	1e b7       	in	r17, 0x3e	; 62
 482:	0f 5f       	subi	r16, 0xFF	; 255
 484:	1f 4f       	sbci	r17, 0xFF	; 255
 486:	c7 01       	movw	r24, r14
 488:	a8 01       	movw	r20, r16
 48a:	0e 94 00 00 	call	0	; 0x0 <_ZN20AccelerometerMMA745510convertToGEPhb>
 48e:	c7 01       	movw	r24, r14
 490:	b8 01       	movw	r22, r16
 492:	f7 01       	movw	r30, r14
 494:	40 85       	ldd	r20, Z+8	; 0x08
 496:	0e 94 00 00 	call	0	; 0x0 <_ZN20AccelerometerMMA745510convertToGEPhb>
 49a:	0f b6       	in	r0, 0x3f	; 63
 49c:	f8 94       	cli
 49e:	de be       	out	0x3e, r13	; 62
 4a0:	0f be       	out	0x3f, r0	; 63
 4a2:	cd be       	out	0x3d, r12	; 61
 4a4:	cf 91       	pop	r28
 4a6:	df 91       	pop	r29
 4a8:	1f 91       	pop	r17
 4aa:	0f 91       	pop	r16
 4ac:	ff 90       	pop	r15
 4ae:	ef 90       	pop	r14
 4b0:	df 90       	pop	r13
 4b2:	cf 90       	pop	r12
 4b4:	08 95       	ret

000004b6 <_ZN20AccelerometerMMA745517calibrate0gOffsetEh>:
 4b6:	5f 92       	push	r5
 4b8:	6f 92       	push	r6
 4ba:	7f 92       	push	r7
 4bc:	8f 92       	push	r8
 4be:	9f 92       	push	r9
 4c0:	af 92       	push	r10
 4c2:	bf 92       	push	r11
 4c4:	cf 92       	push	r12
 4c6:	df 92       	push	r13
 4c8:	ef 92       	push	r14
 4ca:	ff 92       	push	r15
 4cc:	0f 93       	push	r16
 4ce:	1f 93       	push	r17
 4d0:	df 93       	push	r29
 4d2:	cf 93       	push	r28
 4d4:	cd b7       	in	r28, 0x3d	; 61
 4d6:	de b7       	in	r29, 0x3e	; 62
 4d8:	29 97       	sbiw	r28, 0x09	; 9
 4da:	0f b6       	in	r0, 0x3f	; 63
 4dc:	f8 94       	cli
 4de:	de bf       	out	0x3e, r29	; 62
 4e0:	0f be       	out	0x3f, r0	; 63
 4e2:	cd bf       	out	0x3d, r28	; 61
 4e4:	4c 01       	movw	r8, r24
 4e6:	c6 2e       	mov	r12, r22
 4e8:	fc 01       	movw	r30, r24
 4ea:	50 84       	ldd	r5, Z+8	; 0x08
 4ec:	61 e0       	ldi	r22, 0x01	; 1
 4ee:	0e 94 00 00 	call	0	; 0x0 <_ZN20AccelerometerMMA745510convertToGEPhb>
 4f2:	c4 01       	movw	r24, r8
 4f4:	60 e1       	ldi	r22, 0x10	; 16
 4f6:	40 e0       	ldi	r20, 0x00	; 0
 4f8:	26 e0       	ldi	r18, 0x06	; 6
 4fa:	0e 94 00 00 	call	0	; 0x0 <_ZN20AccelerometerMMA745510convertToGEPhb>
 4fe:	64 e6       	ldi	r22, 0x64	; 100
 500:	70 e0       	ldi	r23, 0x00	; 0
 502:	80 e0       	ldi	r24, 0x00	; 0
 504:	90 e0       	ldi	r25, 0x00	; 0
 506:	0e 94 00 00 	call	0	; 0x0 <_ZN20AccelerometerMMA745510convertToGEPhb>
 50a:	dd 24       	eor	r13, r13
 50c:	aa 24       	eor	r10, r10
 50e:	bb 24       	eor	r11, r11
 510:	ee 24       	eor	r14, r14
 512:	ff 24       	eor	r15, r15
 514:	00 e0       	ldi	r16, 0x00	; 0
 516:	10 e0       	ldi	r17, 0x00	; 0
 518:	3e 01       	movw	r6, r28
 51a:	08 94       	sec
 51c:	61 1c       	adc	r6, r1
 51e:	71 1c       	adc	r7, r1
 520:	00 c0       	rjmp	.+0      	; 0x522 <_ZN20AccelerometerMMA745517calibrate0gOffsetEh+0x6c>
 522:	c4 01       	movw	r24, r8
 524:	b3 01       	movw	r22, r6
 526:	0e 94 00 00 	call	0	; 0x0 <_ZN20AccelerometerMMA745510convertToGEPhb>
 52a:	89 81       	ldd	r24, Y+1	; 0x01
 52c:	08 0f       	add	r16, r24
 52e:	11 1d       	adc	r17, r1
 530:	8a 81       	ldd	r24, Y+2	; 0x02
 532:	e8 0e       	add	r14, r24
 534:	f1 1c       	adc	r15, r1
 536:	8b 81       	ldd	r24, Y+3	; 0x03
 538:	a8 0e       	add	r10, r24
 53a:	b1 1c       	adc	r11, r1
 53c:	61 e0       	ldi	r22, 0x01	; 1
 53e:	70 e0       	ldi	r23, 0x00	; 0
 540:	80 e0       	ldi	r24, 0x00	; 0
 542:	90 e0       	ldi	r25, 0x00	; 0
 544:	0e 94 00 00 	call	0	; 0x0 <_ZN20AccelerometerMMA745510convertToGEPhb>
 548:	d3 94       	inc	r13
 54a:	dc 14       	cp	r13, r12
 54c:	00 f0       	brcs	.+0      	; 0x54e <_ZN20AccelerometerMMA745517calibrate0gOffsetEh+0x98>
 54e:	c8 01       	movw	r24, r16
 550:	6c 2d       	mov	r22, r12
 552:	70 e0       	ldi	r23, 0x00	; 0
 554:	0e 94 00 00 	call	0	; 0x0 <_ZN20AccelerometerMMA745510convertToGEPhb>
 558:	fb 01       	movw	r30, r22
 55a:	ee 0f       	add	r30, r30
 55c:	ff 1f       	adc	r31, r31
 55e:	f0 95       	com	r31
 560:	e1 95       	neg	r30
 562:	ff 4f       	sbci	r31, 0xFF	; 255
 564:	c7 01       	movw	r24, r14
 566:	6c 2d       	mov	r22, r12
 568:	70 e0       	ldi	r23, 0x00	; 0
 56a:	0e 94 00 00 	call	0	; 0x0 <_ZN20AccelerometerMMA745510convertToGEPhb>
 56e:	9b 01       	movw	r18, r22
 570:	22 0f       	add	r18, r18
 572:	33 1f       	adc	r19, r19
 574:	30 95       	com	r19
 576:	21 95       	neg	r18
 578:	3f 4f       	sbci	r19, 0xFF	; 255
 57a:	c5 01       	movw	r24, r10
 57c:	6c 2d       	mov	r22, r12
 57e:	70 e0       	ldi	r23, 0x00	; 0
 580:	0e 94 00 00 	call	0	; 0x0 <_ZN20AccelerometerMMA745510convertToGEPhb>
 584:	cb 01       	movw	r24, r22
 586:	88 0f       	add	r24, r24
 588:	99 1f       	adc	r25, r25
 58a:	90 95       	com	r25
 58c:	81 95       	neg	r24
 58e:	9f 4f       	sbci	r25, 0xFF	; 255
 590:	ec 83       	std	Y+4, r30	; 0x04
 592:	fd 83       	std	Y+5, r31	; 0x05
 594:	2e 83       	std	Y+6, r18	; 0x06
 596:	3f 83       	std	Y+7, r19	; 0x07
 598:	88 87       	std	Y+8, r24	; 0x08
 59a:	99 87       	std	Y+9, r25	; 0x09
 59c:	c4 01       	movw	r24, r8
 59e:	60 e1       	ldi	r22, 0x10	; 16
 5a0:	ae 01       	movw	r20, r28
 5a2:	4c 5f       	subi	r20, 0xFC	; 252
 5a4:	5f 4f       	sbci	r21, 0xFF	; 255
 5a6:	26 e0       	ldi	r18, 0x06	; 6
 5a8:	0e 94 00 00 	call	0	; 0x0 <_ZN20AccelerometerMMA745510convertToGEPhb>
 5ac:	c4 01       	movw	r24, r8
 5ae:	65 2d       	mov	r22, r5
 5b0:	0e 94 00 00 	call	0	; 0x0 <_ZN20AccelerometerMMA745510convertToGEPhb>
 5b4:	29 96       	adiw	r28, 0x09	; 9
 5b6:	0f b6       	in	r0, 0x3f	; 63
 5b8:	f8 94       	cli
 5ba:	de bf       	out	0x3e, r29	; 62
 5bc:	0f be       	out	0x3f, r0	; 63
 5be:	cd bf       	out	0x3d, r28	; 61
 5c0:	cf 91       	pop	r28
 5c2:	df 91       	pop	r29
 5c4:	1f 91       	pop	r17
 5c6:	0f 91       	pop	r16
 5c8:	ff 90       	pop	r15
 5ca:	ef 90       	pop	r14
 5cc:	df 90       	pop	r13
 5ce:	cf 90       	pop	r12
 5d0:	bf 90       	pop	r11
 5d2:	af 90       	pop	r10
 5d4:	9f 90       	pop	r9
 5d6:	8f 90       	pop	r8
 5d8:	7f 90       	pop	r7
 5da:	6f 90       	pop	r6
 5dc:	5f 90       	pop	r5
 5de:	08 95       	ret

000005e0 <_ZN20AccelerometerMMA7455C1Ev>:
 5e0:	0f 93       	push	r16
 5e2:	1f 93       	push	r17
 5e4:	8c 01       	movw	r16, r24
 5e6:	80 e0       	ldi	r24, 0x00	; 0
 5e8:	90 e0       	ldi	r25, 0x00	; 0
 5ea:	f8 01       	movw	r30, r16
 5ec:	91 83       	std	Z+1, r25	; 0x01
 5ee:	80 83       	st	Z, r24
 5f0:	80 e0       	ldi	r24, 0x00	; 0
 5f2:	90 e0       	ldi	r25, 0x00	; 0
 5f4:	0e 94 00 00 	call	0	; 0x0 <_ZN20AccelerometerMMA745510convertToGEPhb>
 5f8:	8d e1       	ldi	r24, 0x1D	; 29
 5fa:	f8 01       	movw	r30, r16
 5fc:	86 83       	std	Z+6, r24	; 0x06
 5fe:	17 82       	std	Z+7, r1	; 0x07
 600:	10 86       	std	Z+8, r1	; 0x08
 602:	1f 91       	pop	r17
 604:	0f 91       	pop	r16
 606:	08 95       	ret

00000608 <_ZN20AccelerometerMMA7455C2Ev>:
 608:	0f 93       	push	r16
 60a:	1f 93       	push	r17
 60c:	8c 01       	movw	r16, r24
 60e:	80 e0       	ldi	r24, 0x00	; 0
 610:	90 e0       	ldi	r25, 0x00	; 0
 612:	f8 01       	movw	r30, r16
 614:	91 83       	std	Z+1, r25	; 0x01
 616:	80 83       	st	Z, r24
 618:	80 e0       	ldi	r24, 0x00	; 0
 61a:	90 e0       	ldi	r25, 0x00	; 0
 61c:	0e 94 00 00 	call	0	; 0x0 <_ZN20AccelerometerMMA745510convertToGEPhb>
 620:	8d e1       	ldi	r24, 0x1D	; 29
 622:	f8 01       	movw	r30, r16
 624:	86 83       	std	Z+6, r24	; 0x06
 626:	17 82       	std	Z+7, r1	; 0x07
 628:	10 86       	std	Z+8, r1	; 0x08
 62a:	1f 91       	pop	r17
 62c:	0f 91       	pop	r16
 62e:	08 95       	ret

AccelerometerADXL335.o:     file format elf32-avr

Sections:
Idx Name          Size      VMA       LMA       File off  Algn
  0 .text         00000116  00000000  00000000  00000034  2**0
                  CONTENTS, ALLOC, LOAD, RELOC, READONLY, CODE
  1 .data         00000014  00000000  00000000  0000014a  2**0
                  CONTENTS, ALLOC, LOAD, RELOC, DATA
  2 .bss          00000000  00000000  00000000  0000015e  2**0
                  ALLOC
Disassembly of section .text:

00000000 <_ZN20AccelerometerADXL335C2Eiii>:
   0:	fc 01       	movw	r30, r24
   2:	80 e0       	ldi	r24, 0x00	; 0
   4:	90 e0       	ldi	r25, 0x00	; 0
   6:	91 83       	std	Z+1, r25	; 0x01
   8:	80 83       	st	Z, r24
   a:	73 83       	std	Z+3, r23	; 0x03
   c:	62 83       	std	Z+2, r22	; 0x02
   e:	55 83       	std	Z+5, r21	; 0x05
  10:	44 83       	std	Z+4, r20	; 0x04
  12:	37 83       	std	Z+7, r19	; 0x07
  14:	26 83       	std	Z+6, r18	; 0x06
  16:	80 e0       	ldi	r24, 0x00	; 0
  18:	90 e0       	ldi	r25, 0x00	; 0
  1a:	a0 ea       	ldi	r26, 0xA0	; 160
  1c:	b0 e4       	ldi	r27, 0x40	; 64
  1e:	80 87       	std	Z+8, r24	; 0x08
  20:	91 87       	std	Z+9, r25	; 0x09
  22:	a2 87       	std	Z+10, r26	; 0x0a
  24:	b3 87       	std	Z+11, r27	; 0x0b
  26:	83 e3       	ldi	r24, 0x33	; 51
  28:	93 e3       	ldi	r25, 0x33	; 51
  2a:	a3 e5       	ldi	r26, 0x53	; 83
  2c:	b0 e4       	ldi	r27, 0x40	; 64
  2e:	84 87       	std	Z+12, r24	; 0x0c
  30:	95 87       	std	Z+13, r25	; 0x0d
  32:	a6 87       	std	Z+14, r26	; 0x0e
  34:	b7 87       	std	Z+15, r27	; 0x0f
  36:	83 e3       	ldi	r24, 0x33	; 51
  38:	93 e3       	ldi	r25, 0x33	; 51
  3a:	a3 ed       	ldi	r26, 0xD3	; 211
  3c:	bf e3       	ldi	r27, 0x3F	; 63
  3e:	80 8b       	std	Z+16, r24	; 0x10
  40:	91 8b       	std	Z+17, r25	; 0x11
  42:	a2 8b       	std	Z+18, r26	; 0x12
  44:	b3 8b       	std	Z+19, r27	; 0x13
  46:	08 95       	ret

00000048 <_ZN20AccelerometerADXL335C1Eiii>:
  48:	fc 01       	movw	r30, r24
  4a:	80 e0       	ldi	r24, 0x00	; 0
  4c:	90 e0       	ldi	r25, 0x00	; 0
  4e:	91 83       	std	Z+1, r25	; 0x01
  50:	80 83       	st	Z, r24
  52:	73 83       	std	Z+3, r23	; 0x03
  54:	62 83       	std	Z+2, r22	; 0x02
  56:	55 83       	std	Z+5, r21	; 0x05
  58:	44 83       	std	Z+4, r20	; 0x04
  5a:	37 83       	std	Z+7, r19	; 0x07
  5c:	26 83       	std	Z+6, r18	; 0x06
  5e:	80 e0       	ldi	r24, 0x00	; 0
  60:	90 e0       	ldi	r25, 0x00	; 0
  62:	a0 ea       	ldi	r26, 0xA0	; 160
  64:	b0 e4       	ldi	r27, 0x40	; 64
  66:	80 87       	std	Z+8, r24	; 0x08
  68:	91 87       	std	Z+9, r25	; 0x09
  6a:	a2 87       	std	Z+10, r26	; 0x0a
  6c:	b3 87       	std	Z+11, r27	; 0x0b
  6e:	83 e3       	ldi	r24, 0x33	; 51
  70:	93 e3       	ldi	r25, 0x33	; 51
  72:	a3 e5       	ldi	r26, 0x53	; 83
  74:	b0 e4       	ldi	r27, 0x40	; 64
  76:	84 87       	std	Z+12, r24	; 0x0c
  78:	95 87       	std	Z+13, r25	; 0x0d
  7a:	a6 87       	std	Z+14, r26	; 0x0e
  7c:	b7 87       	std	Z+15, r27	; 0x0f
  7e:	83 e3       	ldi	r24, 0x33	; 51
  80:	93 e3       	ldi	r25, 0x33	; 51
  82:	a3 ed       	ldi	r26, 0xD3	; 211
  84:	bf e3       	ldi	r27, 0x3F	; 63
  86:	80 8b       	std	Z+16, r24	; 0x10
  88:	91 8b       	std	Z+17, r25	; 0x11
  8a:	a2 8b       	std	Z+18, r26	; 0x12
  8c:	b3 8b       	std	Z+19, r27	; 0x13
  8e:	08 95       	ret

00000090 <_ZN20AccelerometerADXL3357readPinEi>:
  90:	0f 93       	push	r16
  92:	1f 93       	push	r17
  94:	8c 01       	movw	r16, r24
  96:	86 2f       	mov	r24, r22
  98:	0e 94 00 00 	call	0	; 0x0 <_ZN20AccelerometerADXL335C2Eiii>
  9c:	aa 27       	eor	r26, r26
  9e:	97 fd       	sbrc	r25, 7
  a0:	a0 95       	com	r26
  a2:	ba 2f       	mov	r27, r26
  a4:	bc 01       	movw	r22, r24
  a6:	cd 01       	movw	r24, r26
  a8:	0e 94 00 00 	call	0	; 0x0 <_ZN20AccelerometerADXL335C2Eiii>
  ac:	f8 01       	movw	r30, r16
  ae:	20 85       	ldd	r18, Z+8	; 0x08
  b0:	31 85       	ldd	r19, Z+9	; 0x09
  b2:	42 85       	ldd	r20, Z+10	; 0x0a
  b4:	53 85       	ldd	r21, Z+11	; 0x0b
  b6:	0e 94 00 00 	call	0	; 0x0 <_ZN20AccelerometerADXL335C2Eiii>
  ba:	20 e0       	ldi	r18, 0x00	; 0
  bc:	30 e0       	ldi	r19, 0x00	; 0
  be:	40 e8       	ldi	r20, 0x80	; 128
  c0:	5a e3       	ldi	r21, 0x3A	; 58
  c2:	0e 94 00 00 	call	0	; 0x0 <_ZN20AccelerometerADXL335C2Eiii>
  c6:	f8 01       	movw	r30, r16
  c8:	20 89       	ldd	r18, Z+16	; 0x10
  ca:	31 89       	ldd	r19, Z+17	; 0x11
  cc:	42 89       	ldd	r20, Z+18	; 0x12
  ce:	53 89       	ldd	r21, Z+19	; 0x13
  d0:	0e 94 00 00 	call	0	; 0x0 <_ZN20AccelerometerADXL335C2Eiii>
  d4:	20 e0       	ldi	r18, 0x00	; 0
  d6:	30 e0       	ldi	r19, 0x00	; 0
  d8:	4a e7       	ldi	r20, 0x7A	; 122
  da:	54 e4       	ldi	r21, 0x44	; 68
  dc:	0e 94 00 00 	call	0	; 0x0 <_ZN20AccelerometerADXL335C2Eiii>
  e0:	20 e0       	ldi	r18, 0x00	; 0
  e2:	30 e0       	ldi	r19, 0x00	; 0
  e4:	45 ea       	ldi	r20, 0xA5	; 165
  e6:	53 e4       	ldi	r21, 0x43	; 67
  e8:	0e 94 00 00 	call	0	; 0x0 <_ZN20AccelerometerADXL335C2Eiii>
  ec:	1f 91       	pop	r17
  ee:	0f 91       	pop	r16
  f0:	08 95       	ret

000000f2 <_ZN20AccelerometerADXL3356readZgEv>:
  f2:	fc 01       	movw	r30, r24
  f4:	66 81       	ldd	r22, Z+6	; 0x06
  f6:	77 81       	ldd	r23, Z+7	; 0x07
  f8:	0e 94 00 00 	call	0	; 0x0 <_ZN20AccelerometerADXL335C2Eiii>
  fc:	08 95       	ret

000000fe <_ZN20AccelerometerADXL3356readYgEv>:
  fe:	fc 01       	movw	r30, r24
 100:	64 81       	ldd	r22, Z+4	; 0x04
 102:	75 81       	ldd	r23, Z+5	; 0x05
 104:	0e 94 00 00 	call	0	; 0x0 <_ZN20AccelerometerADXL335C2Eiii>
 108:	08 95       	ret

0000010a <_ZN20AccelerometerADXL3356readXgEv>:
 10a:	fc 01       	movw	r30, r24
 10c:	62 81       	ldd	r22, Z+2	; 0x02
 10e:	73 81       	ldd	r23, Z+3	; 0x03
 110:	0e 94 00 00 	call	0	; 0x0 <_ZN20AccelerometerADXL335C2Eiii>
 114:	08 95       	ret

Accelerometer.o:     file format elf32-avr

Sections:
Idx Name          Size      VMA       LMA       File off  Algn
  0 .text         00000000  00000000  00000000  00000034  2**0
                  CONTENTS, ALLOC, LOAD, READONLY, CODE
  1 .data         00000000  00000000  00000000  00000034  2**0
                  CONTENTS, ALLOC, LOAD, DATA
  2 .bss          00000000  00000000  00000000  00000034  2**0
                  ALLOC
